(lp0
ccopy_reg
_reconstructor
p1
(cmatplotlib.lines
Line2D
p2
c__builtin__
object
p3
Ntp4
Rp5
(dp6
S'_label'
p7
V_line0
p8
sS'_xcid'
p9
I2
sS'_dashcapstyle'
p10
S'butt'
p11
sS'_linestyles'
p12
NsS'_clipon'
p13
I01
sS'_x_filled'
p14
NsS'ind_offset'
p15
I0
sS'_y'
p16
cnumpy.core.multiarray
_reconstruct
p17
(cnumpy
ndarray
p18
(I0
tp19
S'b'
p20
tp21
Rp22
(I1
(I5
tp23
cnumpy
dtype
p24
(S'f8'
p25
I0
I1
tp26
Rp27
(I3
S'<'
p28
NNNI-1
I-1
I0
tp29
bI00
S'\x00\x00\x00\x00\x00\x00\xf0?\x00\x00\x00\x00\x00\x00\x10@\x00\x00\x00\x00\x00\x00"@\x00\x00\x00\x00\x00\x000@\x00\x00\x00\x00\x00\x009@'
p30
tp31
bsS'_x'
p32
g17
(g18
(I0
tp33
g20
tp34
Rp35
(I1
(I5
tp36
g27
I00
S'\x00\x00\x00\x00\x00\x00\xf0?\x00\x00\x00\x00\x00\x00\x00@\x00\x00\x00\x00\x00\x00\x08@\x00\x00\x00\x00\x00\x00\x10@\x00\x00\x00\x00\x00\x00\x14@'
p37
tp38
bsS'_sketch'
p39
NsS'_rasterized'
p40
NsS'_animated'
p41
I00
sS'_propobservers'
p42
(dp43
sS'eventson'
p44
I00
sS'_axes'
p45
g1
(cmatplotlib.axes._subplots
_PicklableSubplotClassConstructor
p46
g3
Ntp47
Rp48
(cmatplotlib.axes._axes
Axes
p49
tp50
Rp51
(dp52
S'transLimits'
p53
g1
(cmatplotlib.transforms
BboxTransformFrom
p54
g3
Ntp55
Rp56
(dp57
S'_invalid'
p58
I2
sS'_boxin'
p59
g1
(cmatplotlib.transforms
TransformedBbox
p60
g3
Ntp61
Rp62
(dp63
g58
I2
sS'_bbox'
p64
g1
(cmatplotlib.transforms
Bbox
p65
g3
Ntp66
Rp67
(dp68
g58
I2
sS'_minpos'
p69
g17
(g18
(I0
tp70
g20
tp71
Rp72
(I1
(I2
tp73
g27
I00
S'\x00\x00\x00\x00\x00\x00\xf0\x7f\x00\x00\x00\x00\x00\x00\xf0\x7f'
p74
tp75
bsS'_parents'
p76
(dp77
I4707910224
g62
ssS'_points_orig'
p78
g17
(g18
(I0
tp79
g20
tp80
Rp81
(I1
(I2
I2
tp82
g27
I00
S'\x00\x00\x00\x00\x00\x00\x00\x00\x00\x00\x00\x00\x00\x00\x00\x00\x00\x00\x00\x00\x00\x00\xf0?\x00\x00\x00\x00\x00\x00\xf0?'
p83
tp84
bsS'_points'
p85
g17
(g18
(I0
tp86
g20
tp87
Rp88
(I1
(I2
I2
tp89
g27
I00
S'\x9a\x99\x99\x99\x99\x99\xe9?\xa0\x99\x99\x99\x99\x99\xc9\xbf\xcd\xcc\xcc\xcc\xcc\xcc\x14@333333:@'
p90
tp91
bsS'_ignore'
p92
I01
sS'_shorthand_name'
p93
V
p94
sbsS'_transform'
p95
g1
(cmatplotlib.transforms
TransformWrapper
p96
g3
Ntp97
Rp98
(dp99
Voutput_dims
p100
I2
sVparents
p101
(dp102
I4707910224
g62
sI4707910544
g1
(cmatplotlib.transforms
CompositeGenericTransform
p103
g3
Ntp104
Rp105
(dp106
g58
I2
sS'input_dims'
p107
I2
sS'_a'
p108
g98
sS'output_dims'
p109
I2
sS'_b'
p110
g1
(g103
g3
Ntp111
Rp112
(dp113
g58
I2
sg107
I2
sg108
g56
sg109
I2
sg110
g1
(cmatplotlib.transforms
BboxTransformTo
p114
g3
Ntp115
Rp116
(dp117
g58
I1
sS'_mtx'
p118
NsS'_inverted'
p119
NsS'_boxout'
p120
g1
(g60
g3
Ntp121
Rp122
(dp123
g58
I1
sg64
g1
(g65
g3
Ntp124
Rp125
(dp126
g58
I0
sg69
g17
(g18
(I0
tp127
g20
tp128
Rp129
(I1
(I2
tp130
g27
I00
S'\x00\x00\x00\x00\x00\x00\xf0\x7f\x00\x00\x00\x00\x00\x00\xf0\x7f'
p131
tp132
bsg76
(dp133
I4707909968
g122
ssg78
g17
(g18
(I0
tp134
g20
tp135
Rp136
(I1
(I2
I2
tp137
g27
I00
S'\x00\x00\x00\x00\x00\x00\xc0?(\\\x8f\xc2\xf5(\xbc?\xcd\xcc\xcc\xcc\xcc\xcc\xec?)\\\x8f\xc2\xf5(\xec?'
p138
tp139
bsg85
g17
(g18
(I0
tp140
g20
tp141
Rp142
(I1
(I2
I2
tp143
g27
I00
S'\x00\x00\x00\x00\x00\x00\xc0?(\\\x8f\xc2\xf5(\xbc?\xcd\xcc\xcc\xcc\xcc\xcc\xec?)\\\x8f\xc2\xf5(\xec?'
p144
tp145
bsg92
I01
sg93
g94
sbsg95
g1
(g114
g3
Ntp146
Rp147
(dp148
g58
I2
sg118
Nsg119
Nsg120
g1
(g60
g3
Ntp149
Rp150
(dp151
g58
I0
sg64
g1
(g65
g3
Ntp152
Rp153
(dp154
g58
I0
sg69
g17
(g18
(I0
tp155
g20
tp156
Rp157
(I1
(I2
tp158
g27
I00
S'\x00\x00\x00\x00\x00\x00\xf0\x7f\x00\x00\x00\x00\x00\x00\xf0\x7f'
p159
tp160
bsg76
(dp161
I4658035280
g150
ssg78
g17
(g18
(I0
tp162
g20
tp163
Rp164
(I1
(I2
I2
tp165
g27
I00
S'\x00\x00\x00\x00\x00\x00\x00\x00\x00\x00\x00\x00\x00\x00\x00\x00\x9a\x99\x99\x99\x99\x99\x19@333333\x13@'
p166
tp167
bsg85
g17
(g18
(I0
tp168
g20
tp169
Rp170
(I1
(I2
I2
tp171
g27
I00
S'\x00\x00\x00\x00\x00\x00\x00\x00\x00\x00\x00\x00\x00\x00\x00\x00\x9a\x99\x99\x99\x99\x99\x19@333333\x13@'
p172
tp173
bsg92
I01
sg93
g94
sbsg95
g1
(cmatplotlib.transforms
Affine2D
p174
g3
Ntp175
Rp176
(dp177
g58
I0
sg119
Nsg118
g17
(g18
(I0
tp178
g20
tp179
Rp180
(I1
(I3
I3
tp181
g27
I00
S'\x00\x00\x00\x00\x00\x00Y@\x00\x00\x00\x00\x00\x00\x00\x00\x00\x00\x00\x00\x00\x00\x00\x00\x00\x00\x00\x00\x00\x00\x00\x00\x00\x00\x00\x00\x00\x00Y@\x00\x00\x00\x00\x00\x00\x00\x00\x00\x00\x00\x00\x00\x00\x00\x00\x00\x00\x00\x00\x00\x00\x00\x00\x00\x00\x00\x00\x00\x00\xf0?'
p182
tp183
bsg93
g94
sg76
(dp184
I4703311312
g1
(cmatplotlib.transforms
ScaledTranslation
p185
g3
Ntp186
Rp187
(dp188
g58
I1
sg118
NsS'_scale_trans'
p189
g176
sg119
NsS'_t'
p190
(I0
F-0.09722222222222222
tp191
sg93
g94
sg76
(dp192
I4703311376
g1
(g103
g3
Ntp193
Rp194
(dp195
g58
I1
sg107
I2
sg108
g1
(cmatplotlib.transforms
BlendedGenericTransform
p196
g3
Ntp197
Rp198
(dp199
g58
I2
sg16
g116
sg32
g105
sS'_affine'
p200
Nsg76
(dp201
I4703412112
g1
(g103
g3
Ntp202
Rp203
(dp204
g58
I1
sg107
I2
sg108
g198
sg109
I2
sg110
g1
(g185
g3
Ntp205
Rp206
(dp207
g58
I1
sg118
Nsg189
g176
sg119
Nsg190
(I0
F0.07500000000000001
tp208
sg93
g94
sg76
(dp209
I4703412112
g203
ssbsg76
(dp210
sg93
g94
sbsI4703312848
g1
(g103
g3
Ntp211
Rp212
(dp213
g58
I1
sg107
I2
sg108
g198
sg109
I2
sg110
g1
(g185
g3
Ntp214
Rp215
(dp216
g58
I1
sg118
Nsg189
g176
sg119
Nsg190
(I0
F0.09722222222222222
tp217
sg93
g94
sg76
(dp218
I4703312848
g212
ssbsg76
(dp219
sg93
g94
sbsI4703311632
g1
(g103
g3
Ntp220
Rp221
(dp222
g58
I1
sg107
I2
sg108
g198
sg109
I2
sg110
g1
(g185
g3
Ntp223
Rp224
(dp225
g58
I1
sg118
Nsg189
g176
sg119
Nsg190
(I0
F0.09722222222222222
tp226
sg93
g94
sg76
(dp227
I4703311632
g221
ssbsg76
(dp228
sg93
g94
sbsI4703311376
g194
sI4703411856
g1
(g103
g3
Ntp229
Rp230
(dp231
g58
I1
sg107
I2
sg108
g198
sg109
I2
sg110
g1
(g185
g3
Ntp232
Rp233
(dp234
g58
I1
sg118
Nsg189
g176
sg119
Nsg190
(I0
F-0.07500000000000001
tp235
sg93
g94
sg76
(dp236
I4703411856
g230
ssbsg76
(dp237
sg93
g94
sbsI4703312592
g1
(g103
g3
Ntp238
Rp239
(dp240
g58
I1
sg107
I2
sg108
g198
sg109
I2
sg110
g1
(g185
g3
Ntp241
Rp242
(dp243
g58
I1
sg118
Nsg189
g176
sg119
Nsg190
(I0
F-0.09722222222222222
tp244
sg93
g94
sg76
(dp245
I4703312592
g239
ssbsg76
(dp246
sg93
g94
sbssg93
g94
sbsg109
I2
sg110
g187
sg76
(dp247
sg93
g94
sbssbsI4703312784
g215
sI4703313872
g1
(g185
g3
Ntp248
Rp249
(dp250
g58
I1
sg118
Nsg189
g176
sg119
Nsg190
(F-0.09722222222222222
I0
tp251
sg93
g94
sg76
(dp252
I4703408208
g1
(g103
g3
Ntp253
Rp254
(dp255
g58
I1
sg107
I2
sg108
g1
(g196
g3
Ntp256
Rp257
(dp258
g58
I2
sg16
g105
sg32
g116
sg200
Nsg76
(dp259
I4703469520
g1
(g103
g3
Ntp260
Rp261
(dp262
g58
I1
sg107
I2
sg108
g257
sg109
I2
sg110
g1
(g185
g3
Ntp263
Rp264
(dp265
g58
I1
sg118
Nsg189
g176
sg119
Nsg190
(F-0.07500000000000001
I0
tp266
sg93
g94
sg76
(dp267
I4703469520
g261
ssbsg76
(dp268
sg93
g94
sbsI4703408208
g254
sI4703510800
g1
(g103
g3
Ntp269
Rp270
(dp271
g58
I1
sg107
I2
sg108
g257
sg109
I2
sg110
g1
(g185
g3
Ntp272
Rp273
(dp274
g58
I1
sg118
Nsg189
g176
sg119
Nsg190
(F0.07500000000000001
I0
tp275
sg93
g94
sg76
(dp276
I4703510800
g270
ssbsg76
(dp277
sg93
g94
sbsI4703408464
g1
(g103
g3
Ntp278
Rp279
(dp280
g58
I1
sg107
I2
sg108
g257
sg109
I2
sg110
g1
(g185
g3
Ntp281
Rp282
(dp283
g58
I1
sg118
Nsg189
g176
sg119
Nsg190
(F0.09722222222222222
I0
tp284
sg93
g94
sg76
(dp285
I4703408464
g279
ssbsg76
(dp286
sg93
g94
sbsI4703409680
g1
(g103
g3
Ntp287
Rp288
(dp289
g58
I1
sg107
I2
sg108
g257
sg109
I2
sg110
g1
(g185
g3
Ntp290
Rp291
(dp292
g58
I1
sg118
Nsg189
g176
sg119
Nsg190
(F0.09722222222222222
I0
tp293
sg93
g94
sg76
(dp294
I4703409680
g288
ssbsg76
(dp295
sg93
g94
sbsI4703409424
g1
(g103
g3
Ntp296
Rp297
(dp298
g58
I1
sg107
I2
sg108
g257
sg109
I2
sg110
g1
(g185
g3
Ntp299
Rp300
(dp301
g58
I1
sg118
Nsg189
g176
sg119
Nsg190
(F-0.09722222222222222
I0
tp302
sg93
g94
sg76
(dp303
I4703409424
g297
ssbsg76
(dp304
sg93
g94
sbssg93
g94
sbsg109
I2
sg110
g249
sg76
(dp305
sg93
g94
sbssbsI4703410256
g1
(g185
g3
Ntp306
Rp307
(dp308
g58
I1
sg118
Nsg189
g176
sg119
Nsg190
(F0.0
F0.08333333333333333
tp309
sg93
g94
sg76
(dp310
I4703410384
g1
(g103
g3
Ntp311
Rp312
(dp313
g58
I1
sg107
I2
sg108
g116
sg109
I2
sg110
g307
sg76
(dp314
sg93
g94
sbsI4703410448
g1
(g103
g3
Ntp315
Rp316
(dp317
g58
I1
sg107
I2
sg108
g116
sg109
I2
sg110
g307
sg76
(dp318
sg93
g94
sbsI4703410512
g1
(g103
g3
Ntp319
Rp320
(dp321
g58
I1
sg107
I2
sg108
g116
sg109
I2
sg110
g307
sg76
(dp322
sg93
g94
sbssbsI4703411792
g233
sI4703409360
g300
sI4703408400
g282
sI4703412048
g206
sI4703409616
g291
sI4703510736
g273
sI4658035280
g150
sI4703312528
g242
sI4703469456
g264
sI4703311568
g224
ssbsg85
g17
(g18
(I0
tp323
g20
tp324
Rp325
(I1
(I2
I2
tp326
g27
I00
S'\x00\x00\x00\x00\x00\x00\x00\x00\x00\x00\x00\x00\x00\x00\x00\x00\x00\x00\x00\x00\x00\x00\x84@\x00\x00\x00\x00\x00\x00~@'
p327
tp328
bsg76
(dp329
I4658035344
g147
ssg93
g94
sbsg76
(dp330
I4707909968
g122
ssg93
g94
sbsg85
Nsg76
(dp331
I4707910288
g116
ssg93
g94
sbsg76
(dp332
I4707910480
g112
sI4707910608
g198
sI4703511824
g1
(g103
g3
Ntp333
Rp334
(dp335
g58
I1
sg107
I2
sg108
g1
(g103
g3
Ntp336
Rp337
(dp338
g58
I1
sg107
I2
sg108
g1
(g114
g3
Ntp339
Rp340
(dp341
g58
I1
sg118
Nsg119
Nsg120
g1
(g65
g3
Ntp342
Rp343
(dp344
g58
I1
sg69
g17
(g18
(I0
tp345
g20
tp346
Rp347
(I1
(I2
tp348
g27
I00
S'\x00\x00\x00\x00\x00\x00\xf0\x7f\x00\x00\x00\x00\x00\x00\xf0\x7f'
p349
tp350
bsg76
(dp351
I4703511696
g340
ssg78
g17
(g18
(I0
tp352
g20
tp353
Rp354
(I1
(I2
I2
tp355
g27
I00
S'\x00\x00\x00\x00\x00\x00\x00\x00\x00\x00\x00\x00\x00\x00\x00\x00\x00\x00\x00\x00\x00\x00\xf0?\x00\x00\x00\x00\x00\x00\xf0?'
p356
tp357
bsg85
g17
(g18
(I0
tp358
g20
tp359
Rp360
(I1
(I2
I2
tp361
g27
I00
S'\x00\x00\x00\x00\x00\x00\x00\x00\x00\x00\x00\x00\x00\x00\x00\x00\x00\x00\x00\x00\x00\x00\xf0?\x00\x00\x00\x00\x00\x00\xf0?'
p362
tp363
bsg92
I01
sg93
g94
sbsg76
(dp364
I4703511760
g337
ssg93
g94
sbsg109
I2
sg110
g1
(g174
g3
Ntp365
Rp366
(dp367
g58
I2
sg119
Nsg118
g17
(g18
(I0
tp368
g20
tp369
Rp370
(I1
(I3
I3
tp371
g27
I00
S'\x00\x00\x00\x00\x00\x00\xf0?\x00\x00\x00\x00\x00\x00\x00\x00\x00\x00\x00\x00\x00\x00\x00\x00\x00\x00\x00\x00\x00\x00\x00\x00\x00\x00\x00\x00\x00\x00\xf0?\x00\x00\x00\x00\x00\x00\x00\x00\x00\x00\x00\x00\x00\x00\x00\x00\x00\x00\x00\x00\x00\x00\x00\x00\x00\x00\x00\x00\x00\x00\xf0?'
p372
tp373
bsg93
g94
sg76
(dp374
I4703511760
g337
ssbsg76
(dp375
I4703511824
g334
ssg93
g94
sbsg109
I2
sg110
g116
sg76
(dp376
I4703511888
g1
(g60
g3
Ntp377
Rp378
(dp379
g58
I1
sg64
g1
(g65
g3
Ntp380
Rp381
(dp382
g58
I1
sg69
g17
(g18
(I0
tp383
g20
tp384
Rp385
(I1
(I2
tp386
g27
I00
S'\x00\x00\x00\x00\x00\x00\xf0\x7f\x00\x00\x00\x00\x00\x00\xf0\x7f'
p387
tp388
bsg76
(dp389
I4703511888
g378
ssg78
g17
(g18
(I0
tp390
g20
tp391
Rp392
(I1
(I2
I2
tp393
g27
I00
S'\x00\x00\x00\x00\x00\x00\x00\x00\x00\x00\x00\x00\x00\x00\x00\x00\x00\x00\x00\x00\x00\x00\xf0?\x00\x00\x00\x00\x00\x00\xf0?'
p394
tp395
bsg85
g17
(g18
(I0
tp396
g20
tp397
Rp398
(I1
(I2
I2
tp399
g27
I00
S'\x00\x00\x00\x00\x00\x00\x00\x00\x00\x00\x00\x00\x00\x00\x00\x00\x00\x00\x00\x00\x00\x00\xf0?\x00\x00\x00\x00\x00\x00\xf0?'
p400
tp401
bsg92
I01
sg93
g94
sbsg95
g334
sg85
Nsg76
(dp402
sg93
g94
sbssg93
g94
sbsI4707910672
g257
sI4703511376
g1
(g103
g3
Ntp403
Rp404
(dp405
g58
I1
sg107
I2
sg108
g1
(g103
g3
Ntp406
Rp407
(dp408
g58
I1
sg107
I2
sg108
g1
(g114
g3
Ntp409
Rp410
(dp411
g58
I1
sg118
Nsg119
Nsg120
g1
(g65
g3
Ntp412
Rp413
(dp414
g58
I1
sg69
g17
(g18
(I0
tp415
g20
tp416
Rp417
(I1
(I2
tp418
g27
I00
S'\x00\x00\x00\x00\x00\x00\xf0\x7f\x00\x00\x00\x00\x00\x00\xf0\x7f'
p419
tp420
bsg76
(dp421
I4703511248
g410
ssg78
g17
(g18
(I0
tp422
g20
tp423
Rp424
(I1
(I2
I2
tp425
g27
I00
S'\x00\x00\x00\x00\x00\x00\x00\x00\x00\x00\x00\x00\x00\x00\x00\x00\x00\x00\x00\x00\x00\x00\xf0?\x00\x00\x00\x00\x00\x00\xf0?'
p426
tp427
bsg85
g17
(g18
(I0
tp428
g20
tp429
Rp430
(I1
(I2
I2
tp431
g27
I00
S'\x00\x00\x00\x00\x00\x00\x00\x00\x00\x00\x00\x00\x00\x00\x00\x00\x00\x00\x00\x00\x00\x00\xf0?\x00\x00\x00\x00\x00\x00\xf0?'
p432
tp433
bsg92
I01
sg93
g94
sbsg76
(dp434
I4703511312
g407
ssg93
g94
sbsg109
I2
sg110
g1
(g174
g3
Ntp435
Rp436
(dp437
g58
I2
sg119
Nsg118
g17
(g18
(I0
tp438
g20
tp439
Rp440
(I1
(I3
I3
tp441
g27
I00
S'\x00\x00\x00\x00\x00\x00\xf0?\x00\x00\x00\x00\x00\x00\x00\x00\x00\x00\x00\x00\x00\x00\x00\x00\x00\x00\x00\x00\x00\x00\x00\x00\x00\x00\x00\x00\x00\x00\xf0?\x00\x00\x00\x00\x00\x00\x00\x00\x00\x00\x00\x00\x00\x00\x00\x00\x00\x00\x00\x00\x00\x00\x00\x00\x00\x00\x00\x00\x00\x00\xf0?'
p442
tp443
bsg93
g94
sg76
(dp444
I4703511312
g407
ssbsg76
(dp445
I4703511376
g404
ssg93
g94
sbsg109
I2
sg110
g116
sg76
(dp446
I4703511440
g1
(g60
g3
Ntp447
Rp448
(dp449
g58
I1
sg64
g1
(g65
g3
Ntp450
Rp451
(dp452
g58
I1
sg69
g17
(g18
(I0
tp453
g20
tp454
Rp455
(I1
(I2
tp456
g27
I00
S'\x00\x00\x00\x00\x00\x00\xf0\x7f\x00\x00\x00\x00\x00\x00\xf0\x7f'
p457
tp458
bsg76
(dp459
I4703511440
g448
ssg78
g17
(g18
(I0
tp460
g20
tp461
Rp462
(I1
(I2
I2
tp463
g27
I00
S'\x00\x00\x00\x00\x00\x00\x00\x00\x00\x00\x00\x00\x00\x00\x00\x00\x00\x00\x00\x00\x00\x00\xf0?\x00\x00\x00\x00\x00\x00\xf0?'
p464
tp465
bsg85
g17
(g18
(I0
tp466
g20
tp467
Rp468
(I1
(I2
I2
tp469
g27
I00
S'\x00\x00\x00\x00\x00\x00\x00\x00\x00\x00\x00\x00\x00\x00\x00\x00\x00\x00\x00\x00\x00\x00\xf0?\x00\x00\x00\x00\x00\x00\xf0?'
p470
tp471
bsg92
I01
sg93
g94
sbsg95
g404
sg85
Nsg76
(dp472
sg93
g94
sbssg93
g94
sbsI4703466896
g1
(g103
g3
Ntp473
Rp474
(dp475
g58
I1
sg107
I2
sg108
g1
(g103
g3
Ntp476
Rp477
(dp478
g58
I1
sg107
I2
sg108
g1
(g114
g3
Ntp479
Rp480
(dp481
g58
I1
sg118
Nsg119
Nsg120
g1
(g65
g3
Ntp482
Rp483
(dp484
g58
I1
sg69
g17
(g18
(I0
tp485
g20
tp486
Rp487
(I1
(I2
tp488
g27
I00
S'\x00\x00\x00\x00\x00\x00\xf0\x7f\x00\x00\x00\x00\x00\x00\xf0\x7f'
p489
tp490
bsg76
(dp491
I4703466768
g480
ssg78
g17
(g18
(I0
tp492
g20
tp493
Rp494
(I1
(I2
I2
tp495
g27
I00
S'\x00\x00\x00\x00\x00\x00\x00\x00\x00\x00\x00\x00\x00\x00\x00\x00\x00\x00\x00\x00\x00\x00\xf0?\x00\x00\x00\x00\x00\x00\xf0?'
p496
tp497
bsg85
g17
(g18
(I0
tp498
g20
tp499
Rp500
(I1
(I2
I2
tp501
g27
I00
S'\x00\x00\x00\x00\x00\x00\x00\x00\x00\x00\x00\x00\x00\x00\x00\x00\x00\x00\x00\x00\x00\x00\xf0?\x00\x00\x00\x00\x00\x00\xf0?'
p502
tp503
bsg92
I01
sg93
g94
sbsg76
(dp504
I4703466832
g477
ssg93
g94
sbsg109
I2
sg110
g1
(g174
g3
Ntp505
Rp506
(dp507
g58
I2
sg119
Nsg118
g17
(g18
(I0
tp508
g20
tp509
Rp510
(I1
(I3
I3
tp511
g27
I00
S'\x00\x00\x00\x00\x00\x00\xf0?\x00\x00\x00\x00\x00\x00\x00\x00\x00\x00\x00\x00\x00\x00\x00\x00\x00\x00\x00\x00\x00\x00\x00\x00\x00\x00\x00\x00\x00\x00\xf0?\x00\x00\x00\x00\x00\x00\x00\x00\x00\x00\x00\x00\x00\x00\x00\x00\x00\x00\x00\x00\x00\x00\x00\x00\x00\x00\x00\x00\x00\x00\xf0?'
p512
tp513
bsg93
g94
sg76
(dp514
I4703466832
g477
ssbsg76
(dp515
I4703466896
g474
ssg93
g94
sbsg109
I2
sg110
g116
sg76
(dp516
I4703466960
g1
(g60
g3
Ntp517
Rp518
(dp519
g58
I1
sg64
g1
(g65
g3
Ntp520
Rp521
(dp522
g58
I1
sg69
g17
(g18
(I0
tp523
g20
tp524
Rp525
(I1
(I2
tp526
g27
I00
S'\x00\x00\x00\x00\x00\x00\xf0\x7f\x00\x00\x00\x00\x00\x00\xf0\x7f'
p527
tp528
bsg76
(dp529
I4703466960
g518
ssg78
g17
(g18
(I0
tp530
g20
tp531
Rp532
(I1
(I2
I2
tp533
g27
I00
S'\x00\x00\x00\x00\x00\x00\x00\x00\x00\x00\x00\x00\x00\x00\x00\x00\x00\x00\x00\x00\x00\x00\xf0?\x00\x00\x00\x00\x00\x00\xf0?'
p534
tp535
bsg85
g17
(g18
(I0
tp536
g20
tp537
Rp538
(I1
(I2
I2
tp539
g27
I00
S'\x00\x00\x00\x00\x00\x00\x00\x00\x00\x00\x00\x00\x00\x00\x00\x00\x00\x00\x00\x00\x00\x00\xf0?\x00\x00\x00\x00\x00\x00\xf0?'
p540
tp541
bsg92
I01
sg93
g94
sbsg95
g474
sg85
Nsg76
(dp542
sg93
g94
sbssg93
g94
sbsI4703512272
g1
(g103
g3
Ntp543
Rp544
(dp545
g58
I1
sg107
I2
sg108
g1
(g103
g3
Ntp546
Rp547
(dp548
g58
I1
sg107
I2
sg108
g1
(g114
g3
Ntp549
Rp550
(dp551
g58
I1
sg118
Nsg119
Nsg120
g1
(g65
g3
Ntp552
Rp553
(dp554
g58
I1
sg69
g17
(g18
(I0
tp555
g20
tp556
Rp557
(I1
(I2
tp558
g27
I00
S'\x00\x00\x00\x00\x00\x00\xf0\x7f\x00\x00\x00\x00\x00\x00\xf0\x7f'
p559
tp560
bsg76
(dp561
I4703512144
g550
ssg78
g17
(g18
(I0
tp562
g20
tp563
Rp564
(I1
(I2
I2
tp565
g27
I00
S'\x00\x00\x00\x00\x00\x00\x00\x00\x00\x00\x00\x00\x00\x00\x00\x00\x00\x00\x00\x00\x00\x00\xf0?\x00\x00\x00\x00\x00\x00\xf0?'
p566
tp567
bsg85
g17
(g18
(I0
tp568
g20
tp569
Rp570
(I1
(I2
I2
tp571
g27
I00
S'\x00\x00\x00\x00\x00\x00\x00\x00\x00\x00\x00\x00\x00\x00\x00\x00\x00\x00\x00\x00\x00\x00\xf0?\x00\x00\x00\x00\x00\x00\xf0?'
p572
tp573
bsg92
I01
sg93
g94
sbsg76
(dp574
I4703512208
g547
ssg93
g94
sbsg109
I2
sg110
g1
(g174
g3
Ntp575
Rp576
(dp577
g58
I2
sg119
Nsg118
g17
(g18
(I0
tp578
g20
tp579
Rp580
(I1
(I3
I3
tp581
g27
I00
S'\x00\x00\x00\x00\x00\x00\xf0?\x00\x00\x00\x00\x00\x00\x00\x00\x00\x00\x00\x00\x00\x00\x00\x00\x00\x00\x00\x00\x00\x00\x00\x00\x00\x00\x00\x00\x00\x00\xf0?\x00\x00\x00\x00\x00\x00\x00\x00\x00\x00\x00\x00\x00\x00\x00\x00\x00\x00\x00\x00\x00\x00\x00\x00\x00\x00\x00\x00\x00\x00\xf0?'
p582
tp583
bsg93
g94
sg76
(dp584
I4703512208
g547
ssbsg76
(dp585
I4703512272
g544
ssg93
g94
sbsg109
I2
sg110
g116
sg76
(dp586
I4703512336
g1
(g60
g3
Ntp587
Rp588
(dp589
g58
I1
sg64
g1
(g65
g3
Ntp590
Rp591
(dp592
g58
I1
sg69
g17
(g18
(I0
tp593
g20
tp594
Rp595
(I1
(I2
tp596
g27
I00
S'\x00\x00\x00\x00\x00\x00\xf0\x7f\x00\x00\x00\x00\x00\x00\xf0\x7f'
p597
tp598
bsg76
(dp599
I4703512336
g588
ssg78
g17
(g18
(I0
tp600
g20
tp601
Rp602
(I1
(I2
I2
tp603
g27
I00
S'\x00\x00\x00\x00\x00\x00\x00\x00\x00\x00\x00\x00\x00\x00\x00\x00\x00\x00\x00\x00\x00\x00\xf0?\x00\x00\x00\x00\x00\x00\xf0?'
p604
tp605
bsg85
g17
(g18
(I0
tp606
g20
tp607
Rp608
(I1
(I2
I2
tp609
g27
I00
S'\x00\x00\x00\x00\x00\x00\x00\x00\x00\x00\x00\x00\x00\x00\x00\x00\x00\x00\x00\x00\x00\x00\xf0?\x00\x00\x00\x00\x00\x00\xf0?'
p610
tp611
bsg92
I01
sg93
g94
sbsg95
g544
sg85
Nsg76
(dp612
sg93
g94
sbssg93
g94
sbsI4703512720
g1
(g103
g3
Ntp613
Rp614
(dp615
g58
I1
sg107
I2
sg108
g1
(g103
g3
Ntp616
Rp617
(dp618
g58
I1
sg107
I2
sg108
g1
(g114
g3
Ntp619
Rp620
(dp621
g58
I1
sg118
Nsg119
Nsg120
g1
(g65
g3
Ntp622
Rp623
(dp624
g58
I1
sg69
g17
(g18
(I0
tp625
g20
tp626
Rp627
(I1
(I2
tp628
g27
I00
S'\x00\x00\x00\x00\x00\x00\xf0\x7f\x00\x00\x00\x00\x00\x00\xf0\x7f'
p629
tp630
bsg76
(dp631
I4703512592
g620
ssg78
g17
(g18
(I0
tp632
g20
tp633
Rp634
(I1
(I2
I2
tp635
g27
I00
S'\x00\x00\x00\x00\x00\x00\x00\x00\x00\x00\x00\x00\x00\x00\x00\x00\x00\x00\x00\x00\x00\x00\xf0?\x00\x00\x00\x00\x00\x00\xf0?'
p636
tp637
bsg85
g17
(g18
(I0
tp638
g20
tp639
Rp640
(I1
(I2
I2
tp641
g27
I00
S'\x00\x00\x00\x00\x00\x00\x00\x00\x00\x00\x00\x00\x00\x00\x00\x00\x00\x00\x00\x00\x00\x00\xf0?\x00\x00\x00\x00\x00\x00\xf0?'
p642
tp643
bsg92
I01
sg93
g94
sbsg76
(dp644
I4703512656
g617
ssg93
g94
sbsg109
I2
sg110
g1
(g174
g3
Ntp645
Rp646
(dp647
g58
I2
sg119
Nsg118
g17
(g18
(I0
tp648
g20
tp649
Rp650
(I1
(I3
I3
tp651
g27
I00
S'\x00\x00\x00\x00\x00\x00\xf0?\x00\x00\x00\x00\x00\x00\x00\x00\x00\x00\x00\x00\x00\x00\x00\x00\x00\x00\x00\x00\x00\x00\x00\x00\x00\x00\x00\x00\x00\x00\xf0?\x00\x00\x00\x00\x00\x00\x00\x00\x00\x00\x00\x00\x00\x00\x00\x00\x00\x00\x00\x00\x00\x00\x00\x00\x00\x00\x00\x00\x00\x00\xf0?'
p652
tp653
bsg93
g94
sg76
(dp654
I4703512656
g617
ssbsg76
(dp655
I4703512720
g614
ssg93
g94
sbsg109
I2
sg110
g116
sg76
(dp656
I4703512784
g1
(g60
g3
Ntp657
Rp658
(dp659
g58
I1
sg64
g1
(g65
g3
Ntp660
Rp661
(dp662
g58
I1
sg69
g17
(g18
(I0
tp663
g20
tp664
Rp665
(I1
(I2
tp666
g27
I00
S'\x00\x00\x00\x00\x00\x00\xf0\x7f\x00\x00\x00\x00\x00\x00\xf0\x7f'
p667
tp668
bsg76
(dp669
I4703512784
g658
ssg78
g17
(g18
(I0
tp670
g20
tp671
Rp672
(I1
(I2
I2
tp673
g27
I00
S'\x00\x00\x00\x00\x00\x00\x00\x00\x00\x00\x00\x00\x00\x00\x00\x00\x00\x00\x00\x00\x00\x00\xf0?\x00\x00\x00\x00\x00\x00\xf0?'
p674
tp675
bsg85
g17
(g18
(I0
tp676
g20
tp677
Rp678
(I1
(I2
I2
tp679
g27
I00
S'\x00\x00\x00\x00\x00\x00\x00\x00\x00\x00\x00\x00\x00\x00\x00\x00\x00\x00\x00\x00\x00\x00\xf0?\x00\x00\x00\x00\x00\x00\xf0?'
p680
tp681
bsg92
I01
sg93
g94
sbsg95
g614
sg85
Nsg76
(dp682
sg93
g94
sbssg93
g94
sbsI4703410384
g312
sI4703467792
g1
(g103
g3
Ntp683
Rp684
(dp685
g58
I1
sg107
I2
sg108
g1
(g103
g3
Ntp686
Rp687
(dp688
g58
I1
sg107
I2
sg108
g1
(g114
g3
Ntp689
Rp690
(dp691
g58
I1
sg118
Nsg119
Nsg120
g1
(g65
g3
Ntp692
Rp693
(dp694
g58
I1
sg69
g17
(g18
(I0
tp695
g20
tp696
Rp697
(I1
(I2
tp698
g27
I00
S'\x00\x00\x00\x00\x00\x00\xf0\x7f\x00\x00\x00\x00\x00\x00\xf0\x7f'
p699
tp700
bsg76
(dp701
I4703467664
g690
ssg78
g17
(g18
(I0
tp702
g20
tp703
Rp704
(I1
(I2
I2
tp705
g27
I00
S'\x00\x00\x00\x00\x00\x00\x00\x00\x00\x00\x00\x00\x00\x00\x00\x00\x00\x00\x00\x00\x00\x00\xf0?\x00\x00\x00\x00\x00\x00\xf0?'
p706
tp707
bsg85
g17
(g18
(I0
tp708
g20
tp709
Rp710
(I1
(I2
I2
tp711
g27
I00
S'\x00\x00\x00\x00\x00\x00\x00\x00\x00\x00\x00\x00\x00\x00\x00\x00\x00\x00\x00\x00\x00\x00\xf0?\x00\x00\x00\x00\x00\x00\xf0?'
p712
tp713
bsg92
I01
sg93
g94
sbsg76
(dp714
I4703467728
g687
ssg93
g94
sbsg109
I2
sg110
g1
(g174
g3
Ntp715
Rp716
(dp717
g58
I2
sg119
Nsg118
g17
(g18
(I0
tp718
g20
tp719
Rp720
(I1
(I3
I3
tp721
g27
I00
S'\x00\x00\x00\x00\x00\x00\xf0?\x00\x00\x00\x00\x00\x00\x00\x00\x00\x00\x00\x00\x00\x00\x00\x00\x00\x00\x00\x00\x00\x00\x00\x00\x00\x00\x00\x00\x00\x00\xf0?\x00\x00\x00\x00\x00\x00\x00\x00\x00\x00\x00\x00\x00\x00\x00\x00\x00\x00\x00\x00\x00\x00\x00\x00\x00\x00\x00\x00\x00\x00\xf0?'
p722
tp723
bsg93
g94
sg76
(dp724
I4703467728
g687
ssbsg76
(dp725
I4703467792
g684
ssg93
g94
sbsg109
I2
sg110
g116
sg76
(dp726
I4703467856
g1
(g60
g3
Ntp727
Rp728
(dp729
g58
I1
sg64
g1
(g65
g3
Ntp730
Rp731
(dp732
g58
I1
sg69
g17
(g18
(I0
tp733
g20
tp734
Rp735
(I1
(I2
tp736
g27
I00
S'\x00\x00\x00\x00\x00\x00\xf0\x7f\x00\x00\x00\x00\x00\x00\xf0\x7f'
p737
tp738
bsg76
(dp739
I4703467856
g728
ssg78
g17
(g18
(I0
tp740
g20
tp741
Rp742
(I1
(I2
I2
tp743
g27
I00
S'\x00\x00\x00\x00\x00\x00\x00\x00\x00\x00\x00\x00\x00\x00\x00\x00\x00\x00\x00\x00\x00\x00\xf0?\x00\x00\x00\x00\x00\x00\xf0?'
p744
tp745
bsg85
g17
(g18
(I0
tp746
g20
tp747
Rp748
(I1
(I2
I2
tp749
g27
I00
S'\x00\x00\x00\x00\x00\x00\x00\x00\x00\x00\x00\x00\x00\x00\x00\x00\x00\x00\x00\x00\x00\x00\xf0?\x00\x00\x00\x00\x00\x00\xf0?'
p750
tp751
bsg92
I01
sg93
g94
sbsg95
g684
sg85
Nsg76
(dp752
sg93
g94
sbssg93
g94
sbsI4703410512
g320
sI4707912208
g1
(cmatplotlib.transforms
BlendedAffine2D
p753
g3
Ntp754
Rp755
(dp756
g58
I1
sg118
Nsg16
g1
(cmatplotlib.transforms
IdentityTransform
p757
g3
Ntp758
Rp759
(dp760
g58
I1
sg119
Nsg93
g94
sg76
(dp761
I4707912208
g755
ssbsg32
g116
sg119
Nsg93
g94
sg76
(dp762
sbsI4703513168
g1
(g103
g3
Ntp763
Rp764
(dp765
g58
I1
sg107
I2
sg108
g1
(g103
g3
Ntp766
Rp767
(dp768
g58
I1
sg107
I2
sg108
g1
(g114
g3
Ntp769
Rp770
(dp771
g58
I1
sg118
Nsg119
Nsg120
g1
(g65
g3
Ntp772
Rp773
(dp774
g58
I1
sg69
g17
(g18
(I0
tp775
g20
tp776
Rp777
(I1
(I2
tp778
g27
I00
S'\x00\x00\x00\x00\x00\x00\xf0\x7f\x00\x00\x00\x00\x00\x00\xf0\x7f'
p779
tp780
bsg76
(dp781
I4703513040
g770
ssg78
g17
(g18
(I0
tp782
g20
tp783
Rp784
(I1
(I2
I2
tp785
g27
I00
S'\x00\x00\x00\x00\x00\x00\x00\x00\x00\x00\x00\x00\x00\x00\x00\x00\x00\x00\x00\x00\x00\x00\xf0?\x00\x00\x00\x00\x00\x00\xf0?'
p786
tp787
bsg85
g17
(g18
(I0
tp788
g20
tp789
Rp790
(I1
(I2
I2
tp791
g27
I00
S'\x00\x00\x00\x00\x00\x00\x00\x00\x00\x00\x00\x00\x00\x00\x00\x00\x00\x00\x00\x00\x00\x00\xf0?\x00\x00\x00\x00\x00\x00\xf0?'
p792
tp793
bsg92
I01
sg93
g94
sbsg76
(dp794
I4703513104
g767
ssg93
g94
sbsg109
I2
sg110
g1
(g174
g3
Ntp795
Rp796
(dp797
g58
I2
sg119
Nsg118
g17
(g18
(I0
tp798
g20
tp799
Rp800
(I1
(I3
I3
tp801
g27
I00
S'\x00\x00\x00\x00\x00\x00\xf0?\x00\x00\x00\x00\x00\x00\x00\x00\x00\x00\x00\x00\x00\x00\x00\x00\x00\x00\x00\x00\x00\x00\x00\x00\x00\x00\x00\x00\x00\x00\xf0?\x00\x00\x00\x00\x00\x00\x00\x00\x00\x00\x00\x00\x00\x00\x00\x00\x00\x00\x00\x00\x00\x00\x00\x00\x00\x00\x00\x00\x00\x00\xf0?'
p802
tp803
bsg93
g94
sg76
(dp804
I4703513104
g767
ssbsg76
(dp805
I4703513168
g764
ssg93
g94
sbsg109
I2
sg110
g116
sg76
(dp806
I4703513232
g1
(g60
g3
Ntp807
Rp808
(dp809
g58
I1
sg64
g1
(g65
g3
Ntp810
Rp811
(dp812
g58
I1
sg69
g17
(g18
(I0
tp813
g20
tp814
Rp815
(I1
(I2
tp816
g27
I00
S'\x00\x00\x00\x00\x00\x00\xf0\x7f\x00\x00\x00\x00\x00\x00\xf0\x7f'
p817
tp818
bsg76
(dp819
I4703513232
g808
ssg78
g17
(g18
(I0
tp820
g20
tp821
Rp822
(I1
(I2
I2
tp823
g27
I00
S'\x00\x00\x00\x00\x00\x00\x00\x00\x00\x00\x00\x00\x00\x00\x00\x00\x00\x00\x00\x00\x00\x00\xf0?\x00\x00\x00\x00\x00\x00\xf0?'
p824
tp825
bsg85
g17
(g18
(I0
tp826
g20
tp827
Rp828
(I1
(I2
I2
tp829
g27
I00
S'\x00\x00\x00\x00\x00\x00\x00\x00\x00\x00\x00\x00\x00\x00\x00\x00\x00\x00\x00\x00\x00\x00\xf0?\x00\x00\x00\x00\x00\x00\xf0?'
p830
tp831
bsg92
I01
sg93
g94
sbsg95
g764
sg85
Nsg76
(dp832
sg93
g94
sbssg93
g94
sbsI4703468240
g1
(g103
g3
Ntp833
Rp834
(dp835
g58
I1
sg107
I2
sg108
g1
(g103
g3
Ntp836
Rp837
(dp838
g58
I1
sg107
I2
sg108
g1
(g114
g3
Ntp839
Rp840
(dp841
g58
I1
sg118
Nsg119
Nsg120
g1
(g65
g3
Ntp842
Rp843
(dp844
g58
I1
sg69
g17
(g18
(I0
tp845
g20
tp846
Rp847
(I1
(I2
tp848
g27
I00
S'\x00\x00\x00\x00\x00\x00\xf0\x7f\x00\x00\x00\x00\x00\x00\xf0\x7f'
p849
tp850
bsg76
(dp851
I4703468112
g840
ssg78
g17
(g18
(I0
tp852
g20
tp853
Rp854
(I1
(I2
I2
tp855
g27
I00
S'\x00\x00\x00\x00\x00\x00\x00\x00\x00\x00\x00\x00\x00\x00\x00\x00\x00\x00\x00\x00\x00\x00\xf0?\x00\x00\x00\x00\x00\x00\xf0?'
p856
tp857
bsg85
g17
(g18
(I0
tp858
g20
tp859
Rp860
(I1
(I2
I2
tp861
g27
I00
S'\x00\x00\x00\x00\x00\x00\x00\x00\x00\x00\x00\x00\x00\x00\x00\x00\x00\x00\x00\x00\x00\x00\xf0?\x00\x00\x00\x00\x00\x00\xf0?'
p862
tp863
bsg92
I01
sg93
g94
sbsg76
(dp864
I4703468176
g837
ssg93
g94
sbsg109
I2
sg110
g1
(g174
g3
Ntp865
Rp866
(dp867
g58
I2
sg119
Nsg118
g17
(g18
(I0
tp868
g20
tp869
Rp870
(I1
(I3
I3
tp871
g27
I00
S'\x00\x00\x00\x00\x00\x00\xf0?\x00\x00\x00\x00\x00\x00\x00\x00\x00\x00\x00\x00\x00\x00\x00\x00\x00\x00\x00\x00\x00\x00\x00\x00\x00\x00\x00\x00\x00\x00\xf0?\x00\x00\x00\x00\x00\x00\x00\x00\x00\x00\x00\x00\x00\x00\x00\x00\x00\x00\x00\x00\x00\x00\x00\x00\x00\x00\x00\x00\x00\x00\xf0?'
p872
tp873
bsg93
g94
sg76
(dp874
I4703468176
g837
ssbsg76
(dp875
I4703468240
g834
ssg93
g94
sbsg109
I2
sg110
g116
sg76
(dp876
I4703468304
g1
(g60
g3
Ntp877
Rp878
(dp879
g58
I1
sg64
g1
(g65
g3
Ntp880
Rp881
(dp882
g58
I1
sg69
g17
(g18
(I0
tp883
g20
tp884
Rp885
(I1
(I2
tp886
g27
I00
S'\x00\x00\x00\x00\x00\x00\xf0\x7f\x00\x00\x00\x00\x00\x00\xf0\x7f'
p887
tp888
bsg76
(dp889
I4703468304
g878
ssg78
g17
(g18
(I0
tp890
g20
tp891
Rp892
(I1
(I2
I2
tp893
g27
I00
S'\x00\x00\x00\x00\x00\x00\x00\x00\x00\x00\x00\x00\x00\x00\x00\x00\x00\x00\x00\x00\x00\x00\xf0?\x00\x00\x00\x00\x00\x00\xf0?'
p894
tp895
bsg85
g17
(g18
(I0
tp896
g20
tp897
Rp898
(I1
(I2
I2
tp899
g27
I00
S'\x00\x00\x00\x00\x00\x00\x00\x00\x00\x00\x00\x00\x00\x00\x00\x00\x00\x00\x00\x00\x00\x00\xf0?\x00\x00\x00\x00\x00\x00\xf0?'
p900
tp901
bsg92
I01
sg93
g94
sbsg95
g834
sg85
Nsg76
(dp902
sg93
g94
sbssg93
g94
sbsI4703410960
g1
(g103
g3
Ntp903
Rp904
(dp905
g58
I1
sg107
I2
sg108
g1
(g103
g3
Ntp906
Rp907
(dp908
g58
I1
sg107
I2
sg108
g1
(g114
g3
Ntp909
Rp910
(dp911
g58
I1
sg118
Nsg119
Nsg120
g1
(g65
g3
Ntp912
Rp913
(dp914
g58
I1
sg69
g17
(g18
(I0
tp915
g20
tp916
Rp917
(I1
(I2
tp918
g27
I00
S'\x00\x00\x00\x00\x00\x00\xf0\x7f\x00\x00\x00\x00\x00\x00\xf0\x7f'
p919
tp920
bsg76
(dp921
I4703410896
g910
ssg78
g17
(g18
(I0
tp922
g20
tp923
Rp924
(I1
(I2
I2
tp925
g27
I00
S'\x00\x00\x00\x00\x00\x00\x00\x00\x00\x00\x00\x00\x00\x00\x00\x00\x00\x00\x00\x00\x00\x00\xf0?\x00\x00\x00\x00\x00\x00\xf0?'
p926
tp927
bsg85
g17
(g18
(I0
tp928
g20
tp929
Rp930
(I1
(I2
I2
tp931
g27
I00
S'\x00\x00\x00\x00\x00\x00\x00\x00\x00\x00\x00\x00\x00\x00\x00\x00\x00\x00\x00\x00\x00\x00\xf0?\x00\x00\x00\x00\x00\x00\xf0?'
p932
tp933
bsg92
I01
sg93
g94
sbsg76
(dp934
I4703410640
g907
ssg93
g94
sbsg109
I2
sg110
g1
(g174
g3
Ntp935
Rp936
(dp937
g58
I2
sg119
Nsg118
g17
(g18
(I0
tp938
g20
tp939
Rp940
(I1
(I3
I3
tp941
g27
I00
S'\x00\x00\x00\x00\x00\x00\xf0?\x00\x00\x00\x00\x00\x00\x00\x00\x00\x00\x00\x00\x00\x00\x00\x00\x00\x00\x00\x00\x00\x00\x00\x00\x00\x00\x00\x00\x00\x00\xf0?\x00\x00\x00\x00\x00\x00\x00\x00\x00\x00\x00\x00\x00\x00\x00\x00\x00\x00\x00\x00\x00\x00\x00\x00\x00\x00\x00\x00\x00\x00\xf0?'
p942
tp943
bsg93
g94
sg76
(dp944
I4703410640
g907
ssbsg76
(dp945
I4703410960
g904
ssg93
g94
sbsg109
I2
sg110
g116
sg76
(dp946
I4703411024
g1
(g60
g3
Ntp947
Rp948
(dp949
g58
I1
sg64
g1
(g65
g3
Ntp950
Rp951
(dp952
g58
I1
sg69
g17
(g18
(I0
tp953
g20
tp954
Rp955
(I1
(I2
tp956
g27
I00
S'\x00\x00\x00\x00\x00\x00\xf0\x7f\x00\x00\x00\x00\x00\x00\xf0\x7f'
p957
tp958
bsg76
(dp959
I4703411024
g948
ssg78
g17
(g18
(I0
tp960
g20
tp961
Rp962
(I1
(I2
I2
tp963
g27
I00
S'\x00\x00\x00\x00\x00\x00\x00\x00\x00\x00\x00\x00\x00\x00\x00\x00\x00\x00\x00\x00\x00\x00\xf0?\x00\x00\x00\x00\x00\x00\xf0?'
p964
tp965
bsg85
g17
(g18
(I0
tp966
g20
tp967
Rp968
(I1
(I2
I2
tp969
g27
I00
S'\x00\x00\x00\x00\x00\x00\x00\x00\x00\x00\x00\x00\x00\x00\x00\x00\x00\x00\x00\x00\x00\x00\xf0?\x00\x00\x00\x00\x00\x00\xf0?'
p970
tp971
bsg92
I01
sg93
g94
sbsg95
g904
sg85
Nsg76
(dp972
sg93
g94
sbssg93
g94
sbsI4703513616
g1
(g103
g3
Ntp973
Rp974
(dp975
g58
I1
sg107
I2
sg108
g1
(g103
g3
Ntp976
Rp977
(dp978
g58
I1
sg107
I2
sg108
g1
(g114
g3
Ntp979
Rp980
(dp981
g58
I1
sg118
Nsg119
Nsg120
g1
(g65
g3
Ntp982
Rp983
(dp984
g58
I1
sg69
g17
(g18
(I0
tp985
g20
tp986
Rp987
(I1
(I2
tp988
g27
I00
S'\x00\x00\x00\x00\x00\x00\xf0\x7f\x00\x00\x00\x00\x00\x00\xf0\x7f'
p989
tp990
bsg76
(dp991
I4703513488
g980
ssg78
g17
(g18
(I0
tp992
g20
tp993
Rp994
(I1
(I2
I2
tp995
g27
I00
S'\x00\x00\x00\x00\x00\x00\x00\x00\x00\x00\x00\x00\x00\x00\x00\x00\x00\x00\x00\x00\x00\x00\xf0?\x00\x00\x00\x00\x00\x00\xf0?'
p996
tp997
bsg85
g17
(g18
(I0
tp998
g20
tp999
Rp1000
(I1
(I2
I2
tp1001
g27
I00
S'\x00\x00\x00\x00\x00\x00\x00\x00\x00\x00\x00\x00\x00\x00\x00\x00\x00\x00\x00\x00\x00\x00\xf0?\x00\x00\x00\x00\x00\x00\xf0?'
p1002
tp1003
bsg92
I01
sg93
g94
sbsg76
(dp1004
I4703513552
g977
ssg93
g94
sbsg109
I2
sg110
g1
(g174
g3
Ntp1005
Rp1006
(dp1007
g58
I2
sg119
Nsg118
g17
(g18
(I0
tp1008
g20
tp1009
Rp1010
(I1
(I3
I3
tp1011
g27
I00
S'\x00\x00\x00\x00\x00\x00\xf0?\x00\x00\x00\x00\x00\x00\x00\x00\x00\x00\x00\x00\x00\x00\x00\x00\x00\x00\x00\x00\x00\x00\x00\x00\x00\x00\x00\x00\x00\x00\xf0?\x00\x00\x00\x00\x00\x00\x00\x00\x00\x00\x00\x00\x00\x00\x00\x00\x00\x00\x00\x00\x00\x00\x00\x00\x00\x00\x00\x00\x00\x00\xf0?'
p1012
tp1013
bsg93
g94
sg76
(dp1014
I4703513552
g977
ssbsg76
(dp1015
I4703513616
g974
ssg93
g94
sbsg109
I2
sg110
g116
sg76
(dp1016
I4703513680
g1
(g60
g3
Ntp1017
Rp1018
(dp1019
g58
I1
sg64
g1
(g65
g3
Ntp1020
Rp1021
(dp1022
g58
I1
sg69
g17
(g18
(I0
tp1023
g20
tp1024
Rp1025
(I1
(I2
tp1026
g27
I00
S'\x00\x00\x00\x00\x00\x00\xf0\x7f\x00\x00\x00\x00\x00\x00\xf0\x7f'
p1027
tp1028
bsg76
(dp1029
I4703513680
g1018
ssg78
g17
(g18
(I0
tp1030
g20
tp1031
Rp1032
(I1
(I2
I2
tp1033
g27
I00
S'\x00\x00\x00\x00\x00\x00\x00\x00\x00\x00\x00\x00\x00\x00\x00\x00\x00\x00\x00\x00\x00\x00\xf0?\x00\x00\x00\x00\x00\x00\xf0?'
p1034
tp1035
bsg85
g17
(g18
(I0
tp1036
g20
tp1037
Rp1038
(I1
(I2
I2
tp1039
g27
I00
S'\x00\x00\x00\x00\x00\x00\x00\x00\x00\x00\x00\x00\x00\x00\x00\x00\x00\x00\x00\x00\x00\x00\xf0?\x00\x00\x00\x00\x00\x00\xf0?'
p1040
tp1041
bsg92
I01
sg93
g94
sbsg95
g974
sg85
Nsg76
(dp1042
sg93
g94
sbssg93
g94
sbsI4703468624
g1
(g103
g3
Ntp1043
Rp1044
(dp1045
g58
I1
sg107
I2
sg108
g1
(g103
g3
Ntp1046
Rp1047
(dp1048
g58
I1
sg107
I2
sg108
g1
(g114
g3
Ntp1049
Rp1050
(dp1051
g58
I1
sg118
Nsg119
Nsg120
g1
(g65
g3
Ntp1052
Rp1053
(dp1054
g58
I1
sg69
g17
(g18
(I0
tp1055
g20
tp1056
Rp1057
(I1
(I2
tp1058
g27
I00
S'\x00\x00\x00\x00\x00\x00\xf0\x7f\x00\x00\x00\x00\x00\x00\xf0\x7f'
p1059
tp1060
bsg76
(dp1061
I4703468496
g1050
ssg78
g17
(g18
(I0
tp1062
g20
tp1063
Rp1064
(I1
(I2
I2
tp1065
g27
I00
S'\x00\x00\x00\x00\x00\x00\x00\x00\x00\x00\x00\x00\x00\x00\x00\x00\x00\x00\x00\x00\x00\x00\xf0?\x00\x00\x00\x00\x00\x00\xf0?'
p1066
tp1067
bsg85
g17
(g18
(I0
tp1068
g20
tp1069
Rp1070
(I1
(I2
I2
tp1071
g27
I00
S'\x00\x00\x00\x00\x00\x00\x00\x00\x00\x00\x00\x00\x00\x00\x00\x00\x00\x00\x00\x00\x00\x00\xf0?\x00\x00\x00\x00\x00\x00\xf0?'
p1072
tp1073
bsg92
I01
sg93
g94
sbsg76
(dp1074
I4703468560
g1047
ssg93
g94
sbsg109
I2
sg110
g1
(g174
g3
Ntp1075
Rp1076
(dp1077
g58
I2
sg119
Nsg118
g17
(g18
(I0
tp1078
g20
tp1079
Rp1080
(I1
(I3
I3
tp1081
g27
I00
S'\x00\x00\x00\x00\x00\x00\xf0?\x00\x00\x00\x00\x00\x00\x00\x00\x00\x00\x00\x00\x00\x00\x00\x00\x00\x00\x00\x00\x00\x00\x00\x00\x00\x00\x00\x00\x00\x00\xf0?\x00\x00\x00\x00\x00\x00\x00\x00\x00\x00\x00\x00\x00\x00\x00\x00\x00\x00\x00\x00\x00\x00\x00\x00\x00\x00\x00\x00\x00\x00\xf0?'
p1082
tp1083
bsg93
g94
sg76
(dp1084
I4703468560
g1047
ssbsg76
(dp1085
I4703468624
g1044
ssg93
g94
sbsg109
I2
sg110
g116
sg76
(dp1086
I4703468688
g1
(g60
g3
Ntp1087
Rp1088
(dp1089
g58
I1
sg64
g1
(g65
g3
Ntp1090
Rp1091
(dp1092
g58
I1
sg69
g17
(g18
(I0
tp1093
g20
tp1094
Rp1095
(I1
(I2
tp1096
g27
I00
S'\x00\x00\x00\x00\x00\x00\xf0\x7f\x00\x00\x00\x00\x00\x00\xf0\x7f'
p1097
tp1098
bsg76
(dp1099
I4703468688
g1088
ssg78
g17
(g18
(I0
tp1100
g20
tp1101
Rp1102
(I1
(I2
I2
tp1103
g27
I00
S'\x00\x00\x00\x00\x00\x00\x00\x00\x00\x00\x00\x00\x00\x00\x00\x00\x00\x00\x00\x00\x00\x00\xf0?\x00\x00\x00\x00\x00\x00\xf0?'
p1104
tp1105
bsg85
g17
(g18
(I0
tp1106
g20
tp1107
Rp1108
(I1
(I2
I2
tp1109
g27
I00
S'\x00\x00\x00\x00\x00\x00\x00\x00\x00\x00\x00\x00\x00\x00\x00\x00\x00\x00\x00\x00\x00\x00\xf0?\x00\x00\x00\x00\x00\x00\xf0?'
p1110
tp1111
bsg92
I01
sg93
g94
sbsg95
g1044
sg85
Nsg76
(dp1112
sg93
g94
sbssg93
g94
sbsI4703467344
g1
(g103
g3
Ntp1113
Rp1114
(dp1115
g58
I1
sg107
I2
sg108
g1
(g103
g3
Ntp1116
Rp1117
(dp1118
g58
I1
sg107
I2
sg108
g1
(g114
g3
Ntp1119
Rp1120
(dp1121
g58
I1
sg118
Nsg119
Nsg120
g1
(g65
g3
Ntp1122
Rp1123
(dp1124
g58
I1
sg69
g17
(g18
(I0
tp1125
g20
tp1126
Rp1127
(I1
(I2
tp1128
g27
I00
S'\x00\x00\x00\x00\x00\x00\xf0\x7f\x00\x00\x00\x00\x00\x00\xf0\x7f'
p1129
tp1130
bsg76
(dp1131
I4703467216
g1120
ssg78
g17
(g18
(I0
tp1132
g20
tp1133
Rp1134
(I1
(I2
I2
tp1135
g27
I00
S'\x00\x00\x00\x00\x00\x00\x00\x00\x00\x00\x00\x00\x00\x00\x00\x00\x00\x00\x00\x00\x00\x00\xf0?\x00\x00\x00\x00\x00\x00\xf0?'
p1136
tp1137
bsg85
g17
(g18
(I0
tp1138
g20
tp1139
Rp1140
(I1
(I2
I2
tp1141
g27
I00
S'\x00\x00\x00\x00\x00\x00\x00\x00\x00\x00\x00\x00\x00\x00\x00\x00\x00\x00\x00\x00\x00\x00\xf0?\x00\x00\x00\x00\x00\x00\xf0?'
p1142
tp1143
bsg92
I01
sg93
g94
sbsg76
(dp1144
I4703467280
g1117
ssg93
g94
sbsg109
I2
sg110
g1
(g174
g3
Ntp1145
Rp1146
(dp1147
g58
I2
sg119
Nsg118
g17
(g18
(I0
tp1148
g20
tp1149
Rp1150
(I1
(I3
I3
tp1151
g27
I00
S'\x00\x00\x00\x00\x00\x00\xf0?\x00\x00\x00\x00\x00\x00\x00\x00\x00\x00\x00\x00\x00\x00\x00\x00\x00\x00\x00\x00\x00\x00\x00\x00\x00\x00\x00\x00\x00\x00\xf0?\x00\x00\x00\x00\x00\x00\x00\x00\x00\x00\x00\x00\x00\x00\x00\x00\x00\x00\x00\x00\x00\x00\x00\x00\x00\x00\x00\x00\x00\x00\xf0?'
p1152
tp1153
bsg93
g94
sg76
(dp1154
I4703467280
g1117
ssbsg76
(dp1155
I4703467344
g1114
ssg93
g94
sbsg109
I2
sg110
g116
sg76
(dp1156
I4703467408
g1
(g60
g3
Ntp1157
Rp1158
(dp1159
g58
I1
sg64
g1
(g65
g3
Ntp1160
Rp1161
(dp1162
g58
I1
sg69
g17
(g18
(I0
tp1163
g20
tp1164
Rp1165
(I1
(I2
tp1166
g27
I00
S'\x00\x00\x00\x00\x00\x00\xf0\x7f\x00\x00\x00\x00\x00\x00\xf0\x7f'
p1167
tp1168
bsg76
(dp1169
I4703467408
g1158
ssg78
g17
(g18
(I0
tp1170
g20
tp1171
Rp1172
(I1
(I2
I2
tp1173
g27
I00
S'\x00\x00\x00\x00\x00\x00\x00\x00\x00\x00\x00\x00\x00\x00\x00\x00\x00\x00\x00\x00\x00\x00\xf0?\x00\x00\x00\x00\x00\x00\xf0?'
p1174
tp1175
bsg85
g17
(g18
(I0
tp1176
g20
tp1177
Rp1178
(I1
(I2
I2
tp1179
g27
I00
S'\x00\x00\x00\x00\x00\x00\x00\x00\x00\x00\x00\x00\x00\x00\x00\x00\x00\x00\x00\x00\x00\x00\xf0?\x00\x00\x00\x00\x00\x00\xf0?'
p1180
tp1181
bsg92
I01
sg93
g94
sbsg95
g1114
sg85
Nsg76
(dp1182
sg93
g94
sbssg93
g94
sbsI4707913296
g1
(g753
g3
Ntp1183
Rp1184
(dp1185
g58
I1
sg118
Nsg16
g116
sg32
g1
(g757
g3
Ntp1186
Rp1187
(dp1188
g58
I1
sg119
Nsg93
g94
sg76
(dp1189
I4707913296
g1184
ssbsg119
Nsg93
g94
sg76
(dp1190
sbsI4707913552
g1
(g753
g3
Ntp1191
Rp1192
(dp1193
g58
I1
sg118
Nsg16
g1
(g757
g3
Ntp1194
Rp1195
(dp1196
g58
I1
sg119
Nsg93
g94
sg76
(dp1197
I4707913552
g1192
ssbsg32
g116
sg119
Nsg93
g94
sg76
(dp1198
sbsI4703466448
g1
(g103
g3
Ntp1199
Rp1200
(dp1201
g58
I1
sg107
I2
sg108
g1
(g103
g3
Ntp1202
Rp1203
(dp1204
g58
I1
sg107
I2
sg108
g1
(g114
g3
Ntp1205
Rp1206
(dp1207
g58
I1
sg118
Nsg119
Nsg120
g1
(g65
g3
Ntp1208
Rp1209
(dp1210
g58
I1
sg69
g17
(g18
(I0
tp1211
g20
tp1212
Rp1213
(I1
(I2
tp1214
g27
I00
S'\x00\x00\x00\x00\x00\x00\xf0\x7f\x00\x00\x00\x00\x00\x00\xf0\x7f'
p1215
tp1216
bsg76
(dp1217
I4703466320
g1206
ssg78
g17
(g18
(I0
tp1218
g20
tp1219
Rp1220
(I1
(I2
I2
tp1221
g27
I00
S'\x00\x00\x00\x00\x00\x00\x00\x00\x00\x00\x00\x00\x00\x00\x00\x00\x00\x00\x00\x00\x00\x00\xf0?\x00\x00\x00\x00\x00\x00\xf0?'
p1222
tp1223
bsg85
g17
(g18
(I0
tp1224
g20
tp1225
Rp1226
(I1
(I2
I2
tp1227
g27
I00
S'\x00\x00\x00\x00\x00\x00\x00\x00\x00\x00\x00\x00\x00\x00\x00\x00\x00\x00\x00\x00\x00\x00\xf0?\x00\x00\x00\x00\x00\x00\xf0?'
p1228
tp1229
bsg92
I01
sg93
g94
sbsg76
(dp1230
I4703466384
g1203
ssg93
g94
sbsg109
I2
sg110
g1
(g174
g3
Ntp1231
Rp1232
(dp1233
g58
I2
sg119
Nsg118
g17
(g18
(I0
tp1234
g20
tp1235
Rp1236
(I1
(I3
I3
tp1237
g27
I00
S'\x00\x00\x00\x00\x00\x00\xf0?\x00\x00\x00\x00\x00\x00\x00\x00\x00\x00\x00\x00\x00\x00\x00\x00\x00\x00\x00\x00\x00\x00\x00\x00\x00\x00\x00\x00\x00\x00\xf0?\x00\x00\x00\x00\x00\x00\x00\x00\x00\x00\x00\x00\x00\x00\x00\x00\x00\x00\x00\x00\x00\x00\x00\x00\x00\x00\x00\x00\x00\x00\xf0?'
p1238
tp1239
bsg93
g94
sg76
(dp1240
I4703466384
g1203
ssbsg76
(dp1241
I4703466448
g1200
ssg93
g94
sbsg109
I2
sg110
g116
sg76
(dp1242
I4703466512
g1
(g60
g3
Ntp1243
Rp1244
(dp1245
g58
I1
sg64
g1
(g65
g3
Ntp1246
Rp1247
(dp1248
g58
I1
sg69
g17
(g18
(I0
tp1249
g20
tp1250
Rp1251
(I1
(I2
tp1252
g27
I00
S'\x00\x00\x00\x00\x00\x00\xf0\x7f\x00\x00\x00\x00\x00\x00\xf0\x7f'
p1253
tp1254
bsg76
(dp1255
I4703466512
g1244
ssg78
g17
(g18
(I0
tp1256
g20
tp1257
Rp1258
(I1
(I2
I2
tp1259
g27
I00
S'\x00\x00\x00\x00\x00\x00\x00\x00\x00\x00\x00\x00\x00\x00\x00\x00\x00\x00\x00\x00\x00\x00\xf0?\x00\x00\x00\x00\x00\x00\xf0?'
p1260
tp1261
bsg85
g17
(g18
(I0
tp1262
g20
tp1263
Rp1264
(I1
(I2
I2
tp1265
g27
I00
S'\x00\x00\x00\x00\x00\x00\x00\x00\x00\x00\x00\x00\x00\x00\x00\x00\x00\x00\x00\x00\x00\x00\xf0?\x00\x00\x00\x00\x00\x00\xf0?'
p1266
tp1267
bsg92
I01
sg93
g94
sbsg95
g1200
sg85
Nsg76
(dp1268
sg93
g94
sbssg93
g94
sbsI4703576528
g1
(g103
g3
Ntp1269
Rp1270
(dp1271
g58
I1
sg107
I2
sg108
g1
(g103
g3
Ntp1272
Rp1273
(dp1274
g58
I1
sg107
I2
sg108
g1
(g114
g3
Ntp1275
Rp1276
(dp1277
g58
I1
sg118
Nsg119
Nsg120
g1
(g65
g3
Ntp1278
Rp1279
(dp1280
g58
I1
sg69
g17
(g18
(I0
tp1281
g20
tp1282
Rp1283
(I1
(I2
tp1284
g27
I00
S'\x00\x00\x00\x00\x00\x00\xf0\x7f\x00\x00\x00\x00\x00\x00\xf0\x7f'
p1285
tp1286
bsg76
(dp1287
I4703576400
g1276
ssg78
g17
(g18
(I0
tp1288
g20
tp1289
Rp1290
(I1
(I2
I2
tp1291
g27
I00
S'\x00\x00\x00\x00\x00\x00\x00\x00\x00\x00\x00\x00\x00\x00\x00\x00\x00\x00\x00\x00\x00\x00\xf0?\x00\x00\x00\x00\x00\x00\xf0?'
p1292
tp1293
bsg85
g17
(g18
(I0
tp1294
g20
tp1295
Rp1296
(I1
(I2
I2
tp1297
g27
I00
S'\x00\x00\x00\x00\x00\x00\x00\x00\x00\x00\x00\x00\x00\x00\x00\x00\x00\x00\x00\x00\x00\x00\xf0?\x00\x00\x00\x00\x00\x00\xf0?'
p1298
tp1299
bsg92
I01
sg93
g94
sbsg76
(dp1300
I4703576464
g1273
ssg93
g94
sbsg109
I2
sg110
g1
(g174
g3
Ntp1301
Rp1302
(dp1303
g58
I2
sg119
Nsg118
g17
(g18
(I0
tp1304
g20
tp1305
Rp1306
(I1
(I3
I3
tp1307
g27
I00
S'\x00\x00\x00\x00\x00\x00\xf0?\x00\x00\x00\x00\x00\x00\x00\x00\x00\x00\x00\x00\x00\x00\x00\x00\x00\x00\x00\x00\x00\x00\x00\x00\x00\x00\x00\x00\x00\x00\xf0?\x00\x00\x00\x00\x00\x00\x00\x00\x00\x00\x00\x00\x00\x00\x00\x00\x00\x00\x00\x00\x00\x00\x00\x00\x00\x00\x00\x00\x00\x00\xf0?'
p1308
tp1309
bsg93
g94
sg76
(dp1310
I4703576464
g1273
ssbsg76
(dp1311
I4703576528
g1270
ssg93
g94
sbsg109
I2
sg110
g116
sg76
(dp1312
I4703576592
g1
(g60
g3
Ntp1313
Rp1314
(dp1315
g58
I1
sg64
g1
(g65
g3
Ntp1316
Rp1317
(dp1318
g58
I1
sg69
g17
(g18
(I0
tp1319
g20
tp1320
Rp1321
(I1
(I2
tp1322
g27
I00
S'\x00\x00\x00\x00\x00\x00\xf0\x7f\x00\x00\x00\x00\x00\x00\xf0\x7f'
p1323
tp1324
bsg76
(dp1325
I4703576592
g1314
ssg78
g17
(g18
(I0
tp1326
g20
tp1327
Rp1328
(I1
(I2
I2
tp1329
g27
I00
S'\x00\x00\x00\x00\x00\x00\x00\x00\x00\x00\x00\x00\x00\x00\x00\x00\x00\x00\x00\x00\x00\x00\xf0?\x00\x00\x00\x00\x00\x00\xf0?'
p1330
tp1331
bsg85
g17
(g18
(I0
tp1332
g20
tp1333
Rp1334
(I1
(I2
I2
tp1335
g27
I00
S'\x00\x00\x00\x00\x00\x00\x00\x00\x00\x00\x00\x00\x00\x00\x00\x00\x00\x00\x00\x00\x00\x00\xf0?\x00\x00\x00\x00\x00\x00\xf0?'
p1336
tp1337
bsg92
I01
sg93
g94
sbsg95
g1270
sg85
Nsg76
(dp1338
sg93
g94
sbssg93
g94
sbsI4703466000
g1
(g103
g3
Ntp1339
Rp1340
(dp1341
g58
I1
sg107
I2
sg108
g1
(g103
g3
Ntp1342
Rp1343
(dp1344
g58
I1
sg107
I2
sg108
g1
(g114
g3
Ntp1345
Rp1346
(dp1347
g58
I1
sg118
Nsg119
Nsg120
g1
(g65
g3
Ntp1348
Rp1349
(dp1350
g58
I1
sg69
g17
(g18
(I0
tp1351
g20
tp1352
Rp1353
(I1
(I2
tp1354
g27
I00
S'\x00\x00\x00\x00\x00\x00\xf0\x7f\x00\x00\x00\x00\x00\x00\xf0\x7f'
p1355
tp1356
bsg76
(dp1357
I4703465872
g1346
ssg78
g17
(g18
(I0
tp1358
g20
tp1359
Rp1360
(I1
(I2
I2
tp1361
g27
I00
S'\x00\x00\x00\x00\x00\x00\x00\x00\x00\x00\x00\x00\x00\x00\x00\x00\x00\x00\x00\x00\x00\x00\xf0?\x00\x00\x00\x00\x00\x00\xf0?'
p1362
tp1363
bsg85
g17
(g18
(I0
tp1364
g20
tp1365
Rp1366
(I1
(I2
I2
tp1367
g27
I00
S'\x00\x00\x00\x00\x00\x00\x00\x00\x00\x00\x00\x00\x00\x00\x00\x00\x00\x00\x00\x00\x00\x00\xf0?\x00\x00\x00\x00\x00\x00\xf0?'
p1368
tp1369
bsg92
I01
sg93
g94
sbsg76
(dp1370
I4703465936
g1343
ssg93
g94
sbsg109
I2
sg110
g1
(g174
g3
Ntp1371
Rp1372
(dp1373
g58
I2
sg119
Nsg118
g17
(g18
(I0
tp1374
g20
tp1375
Rp1376
(I1
(I3
I3
tp1377
g27
I00
S'\x00\x00\x00\x00\x00\x00\xf0?\x00\x00\x00\x00\x00\x00\x00\x00\x00\x00\x00\x00\x00\x00\x00\x00\x00\x00\x00\x00\x00\x00\x00\x00\x00\x00\x00\x00\x00\x00\xf0?\x00\x00\x00\x00\x00\x00\x00\x00\x00\x00\x00\x00\x00\x00\x00\x00\x00\x00\x00\x00\x00\x00\x00\x00\x00\x00\x00\x00\x00\x00\xf0?'
p1378
tp1379
bsg93
g94
sg76
(dp1380
I4703465936
g1343
ssbsg76
(dp1381
I4703466000
g1340
ssg93
g94
sbsg109
I2
sg110
g116
sg76
(dp1382
I4703466064
g1
(g60
g3
Ntp1383
Rp1384
(dp1385
g58
I1
sg64
g1
(g65
g3
Ntp1386
Rp1387
(dp1388
g58
I1
sg69
g17
(g18
(I0
tp1389
g20
tp1390
Rp1391
(I1
(I2
tp1392
g27
I00
S'\x00\x00\x00\x00\x00\x00\xf0\x7f\x00\x00\x00\x00\x00\x00\xf0\x7f'
p1393
tp1394
bsg76
(dp1395
I4703466064
g1384
ssg78
g17
(g18
(I0
tp1396
g20
tp1397
Rp1398
(I1
(I2
I2
tp1399
g27
I00
S'\x00\x00\x00\x00\x00\x00\x00\x00\x00\x00\x00\x00\x00\x00\x00\x00\x00\x00\x00\x00\x00\x00\xf0?\x00\x00\x00\x00\x00\x00\xf0?'
p1400
tp1401
bsg85
g17
(g18
(I0
tp1402
g20
tp1403
Rp1404
(I1
(I2
I2
tp1405
g27
I00
S'\x00\x00\x00\x00\x00\x00\x00\x00\x00\x00\x00\x00\x00\x00\x00\x00\x00\x00\x00\x00\x00\x00\xf0?\x00\x00\x00\x00\x00\x00\xf0?'
p1406
tp1407
bsg92
I01
sg93
g94
sbsg95
g1340
sg85
Nsg76
(dp1408
sg93
g94
sbssg93
g94
sbsI4707912464
g1
(g753
g3
Ntp1409
Rp1410
(dp1411
g58
I1
sg118
Nsg16
g1
(g757
g3
Ntp1412
Rp1413
(dp1414
g58
I1
sg119
Nsg93
g94
sg76
(dp1415
I4707912464
g1410
ssbsg32
g116
sg119
Nsg93
g94
sg76
(dp1416
sbsI4703410448
g316
ssg93
g94
sbsg76
(dp1417
I4707910544
g105
sI4703576784
Nssg93
g94
sbsg76
(dp1418
I4707910608
g198
sI4707910672
g257
ssg93
g94
sbsI4703576784
NssVinput_dims
p1419
I2
sVchild
p1420
g1
(g753
g3
Ntp1421
Rp1422
(dp1423
g58
I0
sg118
g17
(g18
(I0
tp1424
g20
tp1425
Rp1426
(I1
(I3
I3
tp1427
g27
I00
S'\x00\x00\x00\x00\x00\x00\xf0?\x00\x00\x00\x00\x00\x00\x00\x00\x00\x00\x00\x00\x00\x00\x00\x00\x00\x00\x00\x00\x00\x00\x00\x00\x00\x00\x00\x00\x00\x00\xf0?\x00\x00\x00\x00\x00\x00\x00\x00\x00\x00\x00\x00\x00\x00\x00\x00\x00\x00\x00\x00\x00\x00\x00\x00\x00\x00\x00\x00\x00\x00\xf0?'
p1428
tp1429
bsg16
g1
(g757
g3
Ntp1430
Rp1431
(dp1432
g58
I1
sg119
Nsg93
g94
sg76
(dp1433
I4703310416
g1422
ssbsg32
g1
(g757
g3
Ntp1434
Rp1435
(dp1436
g58
I1
sg119
Nsg93
g94
sg76
(dp1437
I4703310416
g1422
ssbsg119
Nsg93
g94
sg76
(dp1438
I4707910416
g98
ssbsbsg85
Nsg76
(dp1439
I4707910160
g56
ssg93
g94
sbsg118
Nsg119
Nsg93
g94
sg76
(dp1440
I4707910480
g112
ssbsS'_get_patches_for_fill'
p1441
g1
(cmatplotlib.axes._base
_process_plot_var_args
p1442
g3
Ntp1443
Rp1444
(dp1445
Vaxes
p1446
g51
sVcommand
p1447
Vfill
p1448
sbsg9
I1
sg7
g94
sS'legend_'
p1449
NsS'_use_sticky_edges'
p1450
I01
sS'texts'
p1451
(lp1452
sS'_frameon'
p1453
I01
sS'_autoscaleYon'
p1454
I01
sS'_hold'
p1455
I01
sS'artists'
p1456
(lp1457
sg13
I01
sS'tables'
p1458
(lp1459
sS'patches'
p1460
(lp1461
sS'title'
p1462
g1
(cmatplotlib.text
Text
p1463
g3
Ntp1464
Rp1465
(dp1466
g7
g94
sS'_visible'
p1467
I01
sS'figure'
p1468
g1
(cmatplotlib.figure
Figure
p1469
g3
Ntp1470
Rp1471
(dp1472
g7
g94
sS'_constrained_layout_pads'
p1473
(dp1474
Vw_pad
p1475
F0.04167
sVwspace
p1476
F0.02
sVh_pad
p1477
F0.04167
sVhspace
p1478
F0.02
ssg1468
Nsg1467
I01
sS'stale_callback'
p1479
Nsg40
Nsg1451
(lp1480
sg1455
I01
sg1456
(lp1481
sS'_path_effects'
p1482
(lp1483
sS'frameon'
p1484
I01
sg13
I01
sV__mpl_version__
p1485
S'2.2.3'
p1486
sS'_clippath'
p1487
Nsg39
NsS'_contains'
p1488
NsS'_tight_parameters'
p1489
(dp1490
sS'_oid'
p1491
I0
sS'_mouseover'
p1492
I00
sg41
I00
sg42
(dp1493
sg44
I00
sS'_picker'
p1494
NsS'_remove_method'
p1495
NsS'_agg_filter'
p1496
NsS'clipbox'
p1497
NsV_restore_to_pylab
p1498
I01
sS'images'
p1499
(lp1500
sS'bbox_inches'
p1501
g153
sS'_suptitle'
p1502
NsS'_align_xlabel_grp'
p1503
g1
(cmatplotlib.cbook
Grouper
p1504
g3
Ntp1505
Rp1506
(dp1507
S'_mapping'
p1508
(dp1509
sbsS'number'
p1510
I1
sS'callbacks'
p1511
g1
(cmatplotlib.cbook
CallbackRegistry
p1512
g3
Ntp1513
Rp1514
(dp1515
S'exception_handler'
p1516
cmatplotlib.cbook
_exception_printer
p1517
sbsS'_snap'
p1518
NsS'_tight'
p1519
I00
sS'_stale'
p1520
I01
sS'dpi_scale_trans'
p1521
g176
sS'_sticky_edges'
p1522
g1
(cmatplotlib.artist
_XYPair
p1523
c__builtin__
tuple
p1524
((lp1525
(lp1526
tp1527
tp1528
Rp1529
sS'_constrained'
p1530
I00
sg1460
(lp1531
sS'legends'
p1532
(lp1533
sS'suppressComposite'
p1534
NsS'_transformSet'
p1535
I00
sS'_alpha'
p1536
NsS'_axstack'
p1537
g1
(cmatplotlib.figure
AxesStack
p1538
g3
Ntp1539
Rp1540
(dp1541
S'_default'
p1542
NsS'_elements'
p1543
(lp1544
(((I1
I1
I1
tp1545
(ttp1546
(I1
g51
tp1547
tp1548
asS'_ind'
p1549
I1
sS'_pos'
p1550
I0
sbsg95
NsS'lines'
p1551
(lp1552
sS'patch'
p1553
g1
(cmatplotlib.patches
Rectangle
p1554
g3
Ntp1555
Rp1556
(dp1557
g7
g94
sS'_width'
p1558
I1
sS'_fill'
p1559
I01
sg1468
g1471
sg1467
I01
sg1479
Nsg1496
Nsg1482
g1483
sS'_gid'
p1560
NsS'_x0'
p1561
I0
sg13
I01
sS'_combined_transform'
p1562
g1
(g757
g3
Ntp1563
Rp1564
(dp1565
g58
I1
sg119
Nsg93
g94
sg76
(dp1566
sbsS'_edgecolor'
p1567
(cnumpy.core.multiarray
scalar
p1568
(g27
S'\x00\x00\x00\x00\x00\x00\xf0?'
p1569
tp1570
Rp1571
g1568
(g27
S'\x00\x00\x00\x00\x00\x00\xf0?'
p1572
tp1573
Rp1574
g1568
(g27
S'\x00\x00\x00\x00\x00\x00\xf0?'
p1575
tp1576
Rp1577
I1
tp1578
sS'angle'
p1579
F0.0
sg1487
Nsg39
NsS'_original_edgecolor'
p1580
S'w'
p1581
sg40
NsS'_x1'
p1582
I1
sg1492
I00
sg41
I00
sg42
(dp1583
sS'_rect_transform'
p1584
g1
(g757
g3
Ntp1585
Rp1586
(dp1587
g58
I1
sg119
Nsg93
g94
sg76
(dp1588
sbsg44
I00
sS'_hatch'
p1589
Nsg1520
I01
sS'_linewidth'
p1590
F0.0
sg1497
NsS'_height'
p1591
I1
sg1494
NsS'_hatch_color'
p1592
g1578
sS'_dashes'
p1593
NsS'_antialiased'
p1594
I00
sS'_dashoffset'
p1595
NsS'_original_facecolor'
p1596
g1581
sg1518
NsS'_facecolor'
p1597
g1578
sS'_joinstyle'
p1598
Vmiter
p1599
sS'_linestyle'
p1600
Vsolid
p1601
sg1522
g1
(g1523
g1524
((lp1602
(lp1603
tp1604
tp1605
Rp1606
sg1491
I0
sS'_y1'
p1607
I1
sS'_y0'
p1608
I0
sg1535
I01
sg1536
Nsg95
g147
sS'_us_dashes'
p1609
(NNtp1610
sS'_capstyle'
p1611
Vbutt
p1612
sS'_url'
p1613
Nsg1488
Nsg45
Nsg1495
NsbsS'subplotpars'
p1614
g1
(cmatplotlib.figure
SubplotParams
p1615
g3
Ntp1616
Rp1617
(dp1618
S'right'
p1619
F0.9
sS'bottom'
p1620
F0.11
sS'top'
p1621
F0.88
sS'wspace'
p1622
F0.2
sS'validate'
p1623
I01
sS'hspace'
p1624
F0.2
sS'left'
p1625
F0.125
sbsg1560
Nsg1613
NsS'_align_ylabel_grp'
p1626
g1
(g1504
g3
Ntp1627
Rp1628
(dp1629
g1508
(dp1630
sbsS'transFigure'
p1631
g147
sS'_dpi'
p1632
F100.0
sS'bbox'
p1633
g150
sbsg1479
NsS'_fontproperties'
p1634
g1
(cmatplotlib.font_manager
FontProperties
p1635
g3
Ntp1636
Rp1637
(dp1638
S'_family'
p1639
(lp1640
Vsans-serif
p1641
asS'_file'
p1642
NsS'_variant'
p1643
S'normal'
p1644
sS'_slant'
p1645
g1644
sS'_size'
p1646
F12.0
sS'_weight'
p1647
g1644
sS'_stretch'
p1648
g1644
sbsg1496
Nsg1482
g1483
sS'_multialignment'
p1649
Nsg13
I01
sg1487
Nsg16
F1.0
sg32
F0.5
sg39
Nsg1488
Nsg40
Nsg1492
I00
sg41
I00
sg42
(dp1650
sS'_renderer'
p1651
Nsg44
I00
sg45
g51
sg1497
Nsg1613
NsS'_rotation_mode'
p1652
Nsg1494
Nsg1518
Nsg1520
I01
sS'_verticalalignment'
p1653
Vbaseline
p1654
sS'_text'
p1655
V
p1656
sS'_bbox_patch'
p1657
Nsg1522
g1
(g1523
g1524
((lp1658
(lp1659
tp1660
tp1661
Rp1662
sg1491
I0
sS'_rotation'
p1663
Nsg1535
I01
sg1536
NsS'_linespacing'
p1664
F1.2
sg95
g312
sS'_usetex'
p1665
I00
sS'_wrap'
p1666
I00
sg1560
NsS'_color'
p1667
S'k'
p1668
sS'_horizontalalignment'
p1669
Vcenter
p1670
sg1495
NsbsS'_current_image'
p1671
NsS'mouseover_set'
p1672
c__builtin__
set
p1673
((lp1674
tp1675
Rp1676
sg40
NsS'numRows'
p1677
I1
sS'collections'
p1678
(lp1679
sg45
g51
sg42
(dp1680
sg44
I00
sS'containers'
p1681
(lp1682
sg41
I00
sg1497
NsS'_get_lines'
p1683
g1
(g1442
g3
Ntp1684
Rp1685
(dp1686
g1446
g51
sg1447
Vplot
p1687
sbsS'_aspect'
p1688
Vauto
p1689
sS'fmt_xdata'
p1690
Nsg1511
g1
(g1512
g3
Ntp1691
Rp1692
(dp1693
g1516
g1517
sbsg1518
Nsg1597
g1581
sg1520
I01
sg1633
g122
sS'ignore_existing_data_limits'
p1694
I00
sg39
Nsg1491
I0
sg1535
I00
sS'_left_title'
p1695
g1
(g1463
g3
Ntp1696
Rp1697
(dp1698
g7
g94
sg1467
I01
sg1468
g1471
sg1479
Nsg1634
g1
(g1635
g3
Ntp1699
Rp1700
(dp1701
g1639
g1640
sg1642
Nsg1643
g1644
sg1645
g1644
sg1646
F12.0
sg1647
g1644
sg1648
g1644
sbsg1496
Nsg1482
g1483
sg1649
Nsg13
I01
sg1487
Nsg16
F1.0
sg32
F0.0
sg39
Nsg1488
Nsg40
Nsg1492
I00
sg41
I00
sg42
(dp1702
sg1651
Nsg44
I00
sg45
g51
sg1497
Nsg1613
Nsg1652
Nsg1494
Nsg1518
Nsg1520
I01
sg1653
g1654
sg1655
V
p1703
sg1657
Nsg1522
g1
(g1523
g1524
((lp1704
(lp1705
tp1706
tp1707
Rp1708
sg1491
I0
sg1663
Nsg1535
I01
sg1536
Nsg1664
F1.2
sg95
g316
sg1665
I00
sg1666
I00
sg1560
Nsg1667
g1668
sg1669
Vleft
p1709
sg1495
NsbsS'_right_title'
p1710
g1
(g1463
g3
Ntp1711
Rp1712
(dp1713
g7
g94
sg1467
I01
sg1468
g1471
sg1479
Nsg1634
g1
(g1635
g3
Ntp1714
Rp1715
(dp1716
g1639
g1640
sg1642
Nsg1643
g1644
sg1645
g1644
sg1646
F12.0
sg1647
g1644
sg1648
g1644
sbsg1496
Nsg1482
g1483
sg1649
Nsg13
I01
sg1487
Nsg16
F1.0
sg32
F1.0
sg39
Nsg1488
Nsg40
Nsg1492
I00
sg41
I00
sg42
(dp1717
sg1651
Nsg44
I00
sg45
g51
sg1497
Nsg1613
Nsg1652
Nsg1494
Nsg1518
Nsg1520
I01
sg1653
g1654
sg1655
V
p1718
sg1657
Nsg1522
g1
(g1523
g1524
((lp1719
(lp1720
tp1721
tp1722
Rp1723
sg1491
I0
sg1663
Nsg1535
I01
sg1536
Nsg1664
F1.2
sg95
g320
sg1665
I00
sg1666
I00
sg1560
Nsg1667
g1668
sg1669
Vright
p1724
sg1495
NsbsS'transScale'
p1725
g98
sg95
NsS'axison'
p1726
I01
sg1553
g1
(g1554
g3
Ntp1727
Rp1728
(dp1729
g7
g94
sg1558
F1.0
sg1559
I01
sg1468
g1471
sg1467
I01
sg1479
Nsg1496
Nsg1482
g1483
sg1560
Nsg1561
F0.0
sg13
I01
sg1562
g1
(g757
g3
Ntp1730
Rp1731
(dp1732
g58
I1
sg119
Nsg93
g94
sg76
(dp1733
sbsg1567
(F0.0
F0.0
F0.0
F0.0
tp1734
sg1579
F0.0
sg1487
Nsg39
Nsg1580
VNone
p1735
sg40
Nsg1582
F1.0
sg1492
I00
sg41
I00
sg42
(dp1736
sg1584
g1273
sg44
I00
sg1589
Nsg1520
I01
sg1590
F0.0
sg1497
Nsg1591
F1.0
sg1494
Nsg1592
g1734
sg1593
Nsg1594
I01
sg1595
Nsg1596
g1581
sg1518
Nsg1597
g1578
sg1598
g1599
sg1600
g1601
sg1522
g1
(g1523
g1524
((lp1737
(lp1738
tp1739
tp1740
Rp1741
sg1491
I0
sg1607
F1.0
sg1608
F0.0
sg1535
I01
sg1536
Nsg95
g116
sg1609
(NNtp1742
sg1611
g1612
sg1613
Nsg1488
Nsg45
Nsg1495
NsbsS'viewLim'
p1743
g67
sg1482
g1483
sS'_subplotspec'
p1744
g1
(cmatplotlib.gridspec
SubplotSpec
p1745
g3
Ntp1746
Rp1747
(dp1748
S'num1'
p1749
I0
sS'num2'
p1750
I0
sS'_gridspec'
p1751
g1
(cmatplotlib.gridspec
GridSpec
p1752
g3
Ntp1753
Rp1754
(dp1755
S'_nrows'
p1756
I1
sg1619
NsS'_col_width_ratios'
p1757
Nsg1468
g1471
sg1620
Nsg1621
Nsg1622
NsS'_ncols'
p1758
I1
sg1624
NsS'_row_height_ratios'
p1759
Nsg1625
NsbsbsS'_adjustable'
p1760
Vbox
p1761
sg1468
g1471
sS'titleOffsetTrans'
p1762
g307
sS'_yaxis_transform'
p1763
g257
sS'_gridOn'
p1764
I00
sg1479
NsS'colNum'
p1765
g1568
(g24
(S'i8'
p1766
I0
I1
tp1767
Rp1768
(I3
S'<'
p1769
NNNI-1
I-1
I0
tp1770
bS'\x00\x00\x00\x00\x00\x00\x00\x00'
p1771
tp1772
Rp1773
sg1496
Nsg1499
(lp1774
sS'_autoscaleXon'
p1775
I01
sS'_xmargin'
p1776
F0.05
sS'rowNum'
p1777
g1568
(g1768
S'\x00\x00\x00\x00\x00\x00\x00\x00'
p1778
tp1779
Rp1780
sS'_position'
p1781
g125
sS'_rasterization_zorder'
p1782
NsS'_cachedRenderer'
p1783
NsS'_navigate'
p1784
I01
sg1487
NsS'_originalPosition'
p1785
g1
(g65
g3
Ntp1786
Rp1787
(dp1788
g58
I1
sg69
g17
(g18
(I0
tp1789
g20
tp1790
Rp1791
(I1
(I2
tp1792
g27
I00
S'\x00\x00\x00\x00\x00\x00\xf0\x7f\x00\x00\x00\x00\x00\x00\xf0\x7f'
p1793
tp1794
bsg76
(dp1795
sg78
g17
(g18
(I0
tp1796
g20
tp1797
Rp1798
(I1
(I2
I2
tp1799
g27
I00
S'\x00\x00\x00\x00\x00\x00\xc0?(\\\x8f\xc2\xf5(\xbc?\xcd\xcc\xcc\xcc\xcc\xcc\xec?)\\\x8f\xc2\xf5(\xec?'
p1800
tp1801
bsg85
g17
(g18
(I0
tp1802
g20
tp1803
Rp1804
(I1
(I2
I2
tp1805
g27
I00
S'\x00\x00\x00\x00\x00\x00\xc0?(\\\x8f\xc2\xf5(\xbc?\xcd\xcc\xcc\xcc\xcc\xcc\xec?)\\\x8f\xc2\xf5(\xec?'
p1806
tp1807
bsg92
I01
sg93
g94
sbsg1488
NsS'_xaxis_transform'
p1808
g198
sg1492
I00
sS'figbox'
p1809
g125
sS'xaxis'
p1810
g1
(cmatplotlib.axis
XAxis
p1811
g3
Ntp1812
Rp1813
(dp1814
g7
g94
sS'major'
p1815
g1
(cmatplotlib.axis
Ticker
p1816
g3
Ntp1817
Rp1818
(dp1819
S'locator'
p1820
g1
(cmatplotlib.ticker
AutoLocator
p1821
g3
Ntp1822
Rp1823
(dp1824
S'_min_n_ticks'
p1825
I2
sS'_symmetric'
p1826
I00
sS'_nbins'
p1827
Vauto
p1828
sS'_steps'
p1829
g17
(g18
(I0
tp1830
g20
tp1831
Rp1832
(I1
(I5
tp1833
g27
I00
S'\x00\x00\x00\x00\x00\x00\xf0?\x00\x00\x00\x00\x00\x00\x00@\x00\x00\x00\x00\x00\x00\x04@\x00\x00\x00\x00\x00\x00\x14@\x00\x00\x00\x00\x00\x00$@'
p1834
tp1835
bsS'_prune'
p1836
NsS'_extended_steps'
p1837
g17
(g18
(I0
tp1838
g20
tp1839
Rp1840
(I1
(I10
tp1841
g27
I00
S'\x9a\x99\x99\x99\x99\x99\xb9?\x9a\x99\x99\x99\x99\x99\xc9?\x00\x00\x00\x00\x00\x00\xd0?\x00\x00\x00\x00\x00\x00\xe0?\x00\x00\x00\x00\x00\x00\xf0?\x00\x00\x00\x00\x00\x00\x00@\x00\x00\x00\x00\x00\x00\x04@\x00\x00\x00\x00\x00\x00\x14@\x00\x00\x00\x00\x00\x00$@\x00\x00\x00\x00\x00\x004@'
p1842
tp1843
bsS'_integer'
p1844
I00
sS'axis'
p1845
g1813
sbsS'formatter'
p1846
g1
(cmatplotlib.ticker
ScalarFormatter
p1847
g3
Ntp1848
Rp1849
(dp1850
S'_powerlimits'
p1851
(lp1852
I-7
aI7
asS'orderOfMagnitude'
p1853
I0
sS'_useOffset'
p1854
I01
sS'_useLocale'
p1855
I00
sS'format'
p1856
g94
sS'_useMathText'
p1857
I00
sS'_offset_threshold'
p1858
I4
sS'offset'
p1859
I0
sg1665
I00
sS'_scientific'
p1860
I01
sg1845
g1813
sbsbsS'isDefault_label'
p1861
I01
sS'_scale'
p1862
g1
(cmatplotlib.scale
LinearScale
p1863
g3
Ntp1864
Rp1865
sg1468
g1471
sg1467
I01
sS'_gridOnMinor'
p1866
I00
sg1479
Nsg1496
NsS'_smart_bounds'
p1867
I00
sg1482
g1483
sg13
I01
sg1487
NsS'offsetText'
p1868
g1
(g1463
g3
Ntp1869
Rp1870
(dp1871
g7
g94
sg1467
I01
sg1468
g1471
sg1479
Nsg1634
g1
(g1635
g3
Ntp1872
Rp1873
(dp1874
g1639
(lp1875
Vsans-serif
p1876
asg1642
Nsg1643
g1644
sg1645
g1644
sg1646
F10.0
sg1647
g1644
sg1648
g1644
sbsg1496
Nsg1482
g1483
sg1649
Nsg13
I01
sg1487
Nsg16
I0
sg32
I1
sg39
Nsg1488
Nsg40
Nsg1492
I00
sg41
I00
sg42
(dp1877
sg1651
Nsg44
I00
sg45
Nsg1497
Nsg1613
Nsg1652
Nsg1494
Nsg1518
Nsg1520
I01
sg1653
Vtop
p1878
sg1655
S''
p1879
sg1657
Nsg1522
g1
(g1523
g1524
((lp1880
(lp1881
tp1882
tp1883
Rp1884
sg1491
I0
sg1663
Nsg1535
I01
sg1536
Nsg1664
F1.2
sg95
g1410
sg1665
I00
sg1666
I00
sg1560
Nsg1667
g1668
sg1669
Vright
p1885
sg1495
Nsbsg39
Nsg1488
Nsg40
NsS'label'
p1886
g1
(g1463
g3
Ntp1887
Rp1888
(dp1889
g7
g94
sg1467
I01
sg1468
g1471
sg1479
Nsg1634
g1
(g1635
g3
Ntp1890
Rp1891
(dp1892
g1639
(lp1893
Vsans-serif
p1894
asg1642
Nsg1643
g1644
sg1645
g1644
sg1646
F10.0
sg1647
g1644
sg1648
g1644
sbsg1496
Nsg1482
g1483
sg1649
Nsg13
I01
sg1487
Nsg16
I0
sg32
F0.5
sg39
Nsg1488
Nsg40
Nsg1492
I00
sg41
I00
sg42
(dp1895
sg1651
Nsg44
I00
sg45
Nsg1497
Nsg1613
Nsg1652
Nsg1494
Nsg1518
Nsg1520
I01
sg1653
Vtop
p1896
sg1655
V
p1897
sg1657
Nsg1522
g1
(g1523
g1524
((lp1898
(lp1899
tp1900
tp1901
Rp1902
sg1491
I0
sg1663
Nsg1535
I01
sg1536
Nsg1664
F1.2
sg95
g755
sg1665
I00
sg1666
I00
sg1560
Nsg1667
g1668
sg1669
Vcenter
p1903
sg1495
Nsbsg1492
I00
sS'isDefault_majfmt'
p1904
I01
sg41
I00
sg42
(dp1905
sS'units'
p1906
Nsg44
I00
sS'minor'
p1907
g1
(g1816
g3
Ntp1908
Rp1909
(dp1910
g1820
g1
(cmatplotlib.ticker
NullLocator
p1911
g3
Ntp1912
Rp1913
(dp1914
g1845
g1813
sbsg1846
g1
(cmatplotlib.ticker
NullFormatter
p1915
g3
Ntp1916
Rp1917
(dp1918
g1845
g1813
sbsbsg45
g51
sS'_major_tick_kw'
p1919
(dp1920
Vtick1On
p1921
I01
sVlabel1On
p1922
I01
sVtick2On
p1923
I00
sS'gridOn'
p1924
I00
sVlabel2On
p1925
I00
ssS'isDefault_minloc'
p1926
I01
sg1497
g948
sg1494
NsS'_gridOnMajor'
p1927
I00
sS'labelpad'
p1928
F4.0
sS'majorTicks'
p1929
(lp1930
g1
(cmatplotlib.axis
XTick
p1931
g3
Ntp1932
Rp1933
(dp1934
g7
g94
sg1558
F0.8
sg1468
g1471
sS'tick1On'
p1935
I01
sg1467
I01
sg1535
I00
sg1479
Nsg1491
I0
sg1496
NsS'_pad'
p1936
F7.0
sS'_labelcolor'
p1937
g1668
sg1924
I00
sg1646
F3.5
sg1482
g1483
sS'_tickdir'
p1938
S'out'
p1939
sg1886
g1
(g1463
g3
Ntp1940
Rp1941
(dp1942
g7
g94
sg1467
I01
sg1468
g1471
sg1479
Nsg1634
g1
(g1635
g3
Ntp1943
Rp1944
(dp1945
g1639
(lp1946
Vsans-serif
p1947
asg1642
Nsg1643
g1644
sg1645
g1644
sg1646
F10.0
sg1647
g1644
sg1648
g1644
sbsg1496
Nsg1482
g1483
sg1649
Nsg13
I01
sg1487
Nsg16
I0
sg32
I0
sg39
Nsg1488
Nsg40
Nsg1492
I00
sg41
I00
sg42
(dp1948
sg1651
Nsg44
I00
sg45
Nsg1497
Nsg1613
Nsg1652
Nsg1494
Nsg1518
Nsg1520
I01
sg1653
Vtop
p1949
sg1655
S''
p1950
sg1657
Nsg1522
g1
(g1523
g1524
((lp1951
(lp1952
tp1953
tp1954
Rp1955
sg1491
I0
sg1663
Nsg1535
I01
sg1536
Nsg1664
F1.2
sg95
g239
sg1665
I00
sg1666
I00
sg1560
Nsg1667
g1668
sg1669
S'center'
p1956
sg1495
Nsbsg13
I01
sg1487
NsS'label2On'
p1957
I00
sg39
Nsg1488
NsS'_grid_color'
p1958
S'#b0b0b0'
p1959
sg40
NsS'tick2On'
p1960
I00
sg1492
I00
sS'_grid_kw'
p1961
(dp1962
sg41
I00
sg42
(dp1963
sS'_tickmarkers'
p1964
(I3
I2
tp1965
sg44
I00
sS'_zorder'
p1966
F2.01
sg45
g51
sS'label1On'
p1967
I01
sg1497
g1384
sg1613
NsS'label1'
p1968
g1941
sS'label2'
p1969
g1
(g1463
g3
Ntp1970
Rp1971
(dp1972
g7
g94
sg1467
I01
sg1468
g1471
sg1479
Nsg1634
g1
(g1635
g3
Ntp1973
Rp1974
(dp1975
g1639
(lp1976
Vsans-serif
p1977
asg1642
Nsg1643
g1644
sg1645
g1644
sg1646
F10.0
sg1647
g1644
sg1648
g1644
sbsg1496
Nsg1482
g1483
sg1649
Nsg13
I01
sg1487
Nsg16
I1
sg32
I0
sg39
Nsg1488
Nsg40
Nsg1492
I00
sg41
I00
sg42
(dp1978
sg1651
Nsg44
I00
sg45
Nsg1497
Nsg1613
Nsg1652
Nsg1494
Nsg1518
Nsg1520
I01
sg1653
Vbottom
p1979
sg1655
S''
p1980
sg1657
Nsg1522
g1
(g1523
g1524
((lp1981
(lp1982
tp1983
tp1984
Rp1985
sg1491
I0
sg1663
Nsg1535
I01
sg1536
Nsg1664
F1.2
sg95
g212
sg1665
I00
sg1666
I00
sg1560
Nsg1667
g1668
sg1669
g1956
sg1495
Nsbsg1518
NsS'_loc'
p1986
I0
sg1520
I01
sg1522
g1
(g1523
g1524
((lp1987
(lp1988
tp1989
tp1990
Rp1991
sS'_base_pad'
p1992
F3.5
sS'_grid_linewidth'
p1993
F0.8
sS'_grid_alpha'
p1994
F1.0
sS'gridline'
p1995
g1
(g2
g3
Ntp1996
Rp1997
(dp1998
g7
g94
sg1467
I01
sS'_solidcapstyle'
p1999
S'projecting'
p2000
sg1468
g1471
sg10
S'butt'
p2001
sg12
Nsg1479
Nsg1496
Nsg1482
g1483
sS'_solidjoinstyle'
p2002
S'round'
p2003
sg13
I01
sg14
Nsg1487
Nsg16
g17
(g18
(I0
tp2004
g20
tp2005
Rp2006
(I1
(I2
tp2007
g27
I00
S'\x00\x00\x00\x00\x00\x00\x00\x00\x00\x00\x00\x00\x00\x00\xf0?'
p2008
tp2009
bsg32
g17
(g18
(I0
tp2010
g20
tp2011
Rp2012
(I1
(I2
tp2013
g27
I00
S'\x00\x00\x00\x00\x00\x00\x00\x00\x00\x00\x00\x00\x00\x00\x00\x00'
p2014
tp2015
bsg39
Nsg1488
Nsg40
NsS'_xorig'
p2016
(F0.0
F0.0
tp2017
sg1492
I00
sS'_markevery'
p2018
Nsg41
I00
sg42
(dp2019
sS'verticalOffset'
p2020
Nsg44
I00
sS'_subslice'
p2021
I00
sg45
NsS'_transformed_path'
p2022
NsS'_markeredgewidth'
p2023
F1.0
sS'_markerfacecolor'
p2024
Vauto
p2025
sS'_dashSeq'
p2026
Nsg1667
g1959
sS'_marker'
p2027
g1
(cmatplotlib.markers
MarkerStyle
p2028
g3
Ntp2029
Rp2030
(dp2031
g2027
S'None'
p2032
sS'_alt_path'
p2033
NsS'_snap_threshold'
p2034
Nsg95
g1
(g757
g3
Ntp2035
Rp2036
(dp2037
g58
I1
sg119
Nsg93
g94
sg76
(dp2038
sbsS'_filled'
p2039
I00
sS'_fillstyle'
p2040
S'full'
p2041
sS'_alt_transform'
p2042
Nsg1611
Vbutt
p2043
sg1598
Vround
p2044
sS'_path'
p2045
g1
(cmatplotlib.path
Path
p2046
g3
Ntp2047
Rp2048
(dp2049
S'_should_simplify'
p2050
I00
sS'_codes'
p2051
NsS'_vertices'
p2052
g17
(g18
(I0
tp2053
g20
tp2054
Rp2055
(I1
(I0
I2
tp2056
g27
I00
S''
p2057
tp2058
bsS'_readonly'
p2059
I00
sS'_simplify_threshold'
p2060
F0.1111111111111111
sS'_interpolation_steps'
p2061
I1
sS'_has_nonfinite'
p2062
I00
sbsbsg1494
NsS'_markerfacecoloralt'
p2063
Vnone
p2064
sg1594
I01
sS'_markeredgecolor'
p2065
Vauto
p2066
sg1518
NsS'_markersize'
p2067
F0.0
sg1520
I01
sS'_xy'
p2068
g17
(g18
(I0
tp2069
g20
tp2070
Rp2071
(I1
(I2
I2
tp2072
g27
I00
S'\x00\x00\x00\x00\x00\x00\x00\x00\x00\x00\x00\x00\x00\x00\x00\x00\x00\x00\x00\x00\x00\x00\x00\x00\x00\x00\x00\x00\x00\x00\xf0?'
p2073
tp2074
bsg1600
S'-'
p2075
sg1522
g1
(g1523
g1524
((lp2076
(lp2077
tp2078
tp2079
Rp2080
sg1491
I0
sS'_drawstyle'
p2081
Vdefault
p2082
sg15
I0
sS'_us_dashOffset'
p2083
NsS'pickradius'
p2084
I5
sg1535
I01
sg1536
F1.0
sS'_dashjoinstyle'
p2085
S'round'
p2086
sS'_invalidx'
p2087
I00
sg95
g198
sS'_dashOffset'
p2088
NsS'_us_dashSeq'
p2089
NsS'_invalidy'
p2090
I00
sg1560
Nsg1613
NsS'_yorig'
p2091
(I0
F1.0
tp2092
sg1497
g1244
sg1590
F0.8
sg1495
Nsg2045
g1
(g2046
g3
Ntp2093
Rp2094
(dp2095
g2050
I00
sg2051
Nsg2052
g17
(g18
(I0
tp2096
g20
tp2097
Rp2098
(I1
(I2
I2
tp2099
g27
I01
S'\x00\x00\x00\x00\x00\x00\x00\x00\x00\x00\x00\x00\x00\x00\x00\x00\x00\x00\x00\x00\x00\x00\x00\x00\x00\x00\x00\x00\x00\x00\xf0?'
p2100
tp2101
bsg2059
I00
sg2060
F0.1111111111111111
sg2061
I180
sg2062
I00
sbsbsg1536
Nsg1494
NsS'tick2line'
p2102
g1
(g2
g3
Ntp2103
Rp2104
(dp2105
g7
g94
sg10
S'butt'
p2106
sg12
Nsg13
I01
sg14
Nsg15
I0
sg16
Nsg32
Nsg39
Nsg40
Nsg41
I00
sg42
(dp2107
sg44
I00
sg45
Nsg2023
F0.8
sg2026
Nsg2063
g2064
sg2065
g2066
sg1518
Nsg1520
I01
sg2016
(I0
tp2108
sg1491
I0
sg1535
I01
sg2090
I01
sg2087
I01
sg95
g198
sg2089
NsS'zorder'
p2109
F2.01
sg1667
g1668
sg2084
I5
sg1468
g1471
sg2020
Nsg1479
Nsg1496
Nsg1482
g1483
sg2002
S'round'
p2110
sg1487
Nsg1488
Nsg1492
I00
sg2018
Nsg1495
Nsg2022
Nsg2027
g1
(g2028
g3
Ntp2111
Rp2112
(dp2113
g2027
I2
sg2033
Nsg2034
F1.0
sg95
g1
(g174
g3
Ntp2114
Rp2115
(dp2116
g58
I2
sg119
Nsg118
g17
(g18
(I0
tp2117
g20
tp2118
Rp2119
(I1
(I3
I3
tp2120
g27
I00
S'\x00\x00\x00\x00\x00\x00\xf0?\x00\x00\x00\x00\x00\x00\x00\x00\x00\x00\x00\x00\x00\x00\x00\x00\x00\x00\x00\x00\x00\x00\x00\x00\x00\x00\x00\x00\x00\x00\xf0?\x00\x00\x00\x00\x00\x00\x00\x00\x00\x00\x00\x00\x00\x00\x00\x00\x00\x00\x00\x00\x00\x00\x00\x00\x00\x00\x00\x00\x00\x00\xf0?'
p2121
tp2122
bsg93
g94
sg76
(dp2123
sbsg2039
I00
sg2040
g2041
sg2042
Nsg1611
g2043
sg1598
g2044
sg2045
g1
(g2046
g3
Ntp2124
Rp2125
(dp2126
g2050
I00
sg2051
Nsg2052
g17
(g18
(I0
tp2127
g20
tp2128
Rp2129
(I1
(I2
I2
tp2130
g27
I00
S'\x00\x00\x00\x00\x00\x00\x00\x80\x00\x00\x00\x00\x00\x00\x00\x00\x00\x00\x00\x00\x00\x00\x00\x80\x00\x00\x00\x00\x00\x00\xf0?'
p2131
tp2132
bsg2059
I00
sg2060
F0.1111111111111111
sg2061
I1
sg2062
I00
sbsbsg2024
g2025
sg1497
Nsg1494
Nsg1594
I01
sg2068
Nsg1600
VNone
p2133
sg1522
g1
(g1523
g1524
((lp2134
(lp2135
tp2136
tp2137
Rp2138
sg2021
I00
sg2081
g2082
sg1999
S'projecting'
p2139
sg2083
Nsg1536
Nsg2085
S'round'
p2140
sg2067
F3.5
sg1467
I01
sg2088
Nsg1560
Nsg1613
Nsg2091
(I1
tp2141
sg1590
F1.5
sg2045
Nsbsg95
NsS'_labelsize'
p2142
S'medium'
p2143
sS'_name'
p2144
Vxtick
p2145
sS'_grid_linestyle'
p2146
g2075
sS'_labelrotation'
p2147
(Vdefault
p2148
I0
tp2149
sg1560
Nsg1667
g1668
sS'tick1line'
p2150
g1
(g2
g3
Ntp2151
Rp2152
(dp2153
g7
g94
sg10
S'butt'
p2154
sg12
Nsg13
I01
sg14
Nsg15
I0
sg16
Nsg32
Nsg39
Nsg40
Nsg41
I00
sg42
(dp2155
sg44
I00
sg45
Nsg2023
F0.8
sg2026
Nsg2063
g2064
sg2065
g2066
sg1518
Nsg1520
I01
sg2016
(I0
tp2156
sg1491
I0
sg1535
I01
sg2090
I01
sg2087
I01
sg95
g198
sg2089
Nsg2109
F2.01
sg1667
g1668
sg2084
I5
sg1468
g1471
sg2020
Nsg1479
Nsg1496
Nsg1482
g1483
sg2002
S'round'
p2157
sg1487
Nsg1488
Nsg1492
I00
sg2018
Nsg1495
Nsg2022
Nsg2027
g1
(g2028
g3
Ntp2158
Rp2159
(dp2160
g2027
I3
sg2033
Nsg2034
F1.0
sg95
g1
(g174
g3
Ntp2161
Rp2162
(dp2163
g58
I2
sg119
Nsg118
g17
(g18
(I0
tp2164
g20
tp2165
Rp2166
(I1
(I3
I3
tp2167
g27
I00
S'\x00\x00\x00\x00\x00\x00\xf0?\x00\x00\x00\x00\x00\x00\x00\x00\x00\x00\x00\x00\x00\x00\x00\x00\x00\x00\x00\x00\x00\x00\x00\x00\x00\x00\x00\x00\x00\x00\xf0\xbf\x00\x00\x00\x00\x00\x00\x00\x00\x00\x00\x00\x00\x00\x00\x00\x00\x00\x00\x00\x00\x00\x00\x00\x00\x00\x00\x00\x00\x00\x00\xf0?'
p2168
tp2169
bsg93
g94
sg76
(dp2170
sbsg2039
I00
sg2040
g2041
sg2042
Nsg1611
g2043
sg1598
g2044
sg2045
g2125
sbsg2024
g2025
sg1497
Nsg1494
Nsg1594
I01
sg2068
Nsg1600
VNone
p2171
sg1522
g1
(g1523
g1524
((lp2172
(lp2173
tp2174
tp2175
Rp2176
sg2021
I00
sg2081
g2082
sg1999
S'projecting'
p2177
sg2083
Nsg1536
Nsg2085
S'round'
p2178
sg2067
F3.5
sg1467
I01
sg2088
Nsg1560
Nsg1613
Nsg2091
(I0
tp2179
sg1590
F1.5
sg2045
Nsbsg1495
Nsbag1
(g1931
g3
Ntp2180
Rp2181
(dp2182
g7
g94
sg1558
F0.8
sg1468
g1471
sg1935
I01
sg1467
I01
sg1535
I00
sg1479
Nsg1491
I0
sg1496
Nsg1936
F7.0
sg1937
g1668
sg1924
I00
sg1646
F3.5
sg1482
g1483
sg1938
g1939
sg1886
g1
(g1463
g3
Ntp2183
Rp2184
(dp2185
g7
g94
sg1467
I01
sg1468
g1471
sg1479
Nsg1634
g1
(g1635
g3
Ntp2186
Rp2187
(dp2188
g1639
(lp2189
Vsans-serif
p2190
asg1642
Nsg1643
g1644
sg1645
g1644
sg1646
F10.0
sg1647
g1644
sg1648
g1644
sbsg1496
Nsg1482
g1483
sg1649
Nsg13
I01
sg1487
Nsg16
I0
sg32
I0
sg39
Nsg1488
Nsg40
Nsg1492
I00
sg41
I00
sg42
(dp2191
sg1651
Nsg44
I00
sg45
Nsg1497
Nsg1613
Nsg1652
Nsg1494
Nsg1518
Nsg1520
I01
sg1653
g1949
sg1655
S''
p2192
sg1657
Nsg1522
g1
(g1523
g1524
((lp2193
(lp2194
tp2195
tp2196
Rp2197
sg1491
I0
sg1663
Nsg1535
I01
sg1536
Nsg1664
F1.2
sg95
g194
sg1665
I00
sg1666
I00
sg1560
Nsg1667
g1668
sg1669
g1956
sg1495
Nsbsg13
I01
sg1487
Nsg1957
I00
sg39
Nsg1488
Nsg1958
g1959
sg40
Nsg1960
I00
sg1492
I00
sg1961
(dp2198
sg41
I00
sg42
(dp2199
sg1964
(I3
I2
tp2200
sg44
I00
sg1966
F2.01
sg45
g51
sg1967
I01
sg1497
g518
sg1613
Nsg1968
g2184
sg1969
g1
(g1463
g3
Ntp2201
Rp2202
(dp2203
g7
g94
sg1467
I01
sg1468
g1471
sg1479
Nsg1634
g1
(g1635
g3
Ntp2204
Rp2205
(dp2206
g1639
(lp2207
Vsans-serif
p2208
asg1642
Nsg1643
g1644
sg1645
g1644
sg1646
F10.0
sg1647
g1644
sg1648
g1644
sbsg1496
Nsg1482
g1483
sg1649
Nsg13
I01
sg1487
Nsg16
I1
sg32
I0
sg39
Nsg1488
Nsg40
Nsg1492
I00
sg41
I00
sg42
(dp2209
sg1651
Nsg44
I00
sg45
Nsg1497
Nsg1613
Nsg1652
Nsg1494
Nsg1518
Nsg1520
I01
sg1653
g1979
sg1655
S''
p2210
sg1657
Nsg1522
g1
(g1523
g1524
((lp2211
(lp2212
tp2213
tp2214
Rp2215
sg1491
I0
sg1663
Nsg1535
I01
sg1536
Nsg1664
F1.2
sg95
g221
sg1665
I00
sg1666
I00
sg1560
Nsg1667
g1668
sg1669
g1956
sg1495
Nsbsg1518
Nsg1986
I0
sg1520
I01
sg1522
g1
(g1523
g1524
((lp2216
(lp2217
tp2218
tp2219
Rp2220
sg1992
F3.5
sg1993
F0.8
sg1994
F1.0
sg1995
g1
(g2
g3
Ntp2221
Rp2222
(dp2223
g7
g94
sg1467
I01
sg1999
S'projecting'
p2224
sg1468
g1471
sg10
S'butt'
p2225
sg12
Nsg1479
Nsg1496
Nsg1482
g1483
sg2002
S'round'
p2226
sg13
I01
sg14
Nsg1487
Nsg16
g17
(g18
(I0
tp2227
g20
tp2228
Rp2229
(I1
(I2
tp2230
g27
I00
S'\x00\x00\x00\x00\x00\x00\x00\x00\x00\x00\x00\x00\x00\x00\xf0?'
p2231
tp2232
bsg32
g17
(g18
(I0
tp2233
g20
tp2234
Rp2235
(I1
(I2
tp2236
g27
I00
S'\x00\x00\x00\x00\x00\x00\x00\x00\x00\x00\x00\x00\x00\x00\x00\x00'
p2237
tp2238
bsg39
Nsg1488
Nsg40
Nsg2016
g2017
sg1492
I00
sg2018
Nsg41
I00
sg42
(dp2239
sg2020
Nsg44
I00
sg2021
I00
sg45
Nsg2022
Nsg2023
F1.0
sg2024
g2025
sg2026
Nsg1667
g1959
sg2027
g1
(g2028
g3
Ntp2240
Rp2241
(dp2242
g2027
g2032
sg2033
Nsg2034
Nsg95
g1
(g757
g3
Ntp2243
Rp2244
(dp2245
g58
I1
sg119
Nsg93
g94
sg76
(dp2246
sbsg2039
I00
sg2040
g2041
sg2042
Nsg1611
g2043
sg1598
g2044
sg2045
g2048
sbsg1494
Nsg2063
g2064
sg1594
I01
sg2065
g2066
sg1518
Nsg2067
F0.0
sg1520
I01
sg2068
g17
(g18
(I0
tp2247
g20
tp2248
Rp2249
(I1
(I2
I2
tp2250
g27
I00
S'\x00\x00\x00\x00\x00\x00\x00\x00\x00\x00\x00\x00\x00\x00\x00\x00\x00\x00\x00\x00\x00\x00\x00\x00\x00\x00\x00\x00\x00\x00\xf0?'
p2251
tp2252
bsg1600
g2075
sg1522
g1
(g1523
g1524
((lp2253
(lp2254
tp2255
tp2256
Rp2257
sg1491
I0
sg2081
g2082
sg15
I0
sg2083
Nsg2084
I5
sg1535
I01
sg1536
F1.0
sg2085
S'round'
p2258
sg2087
I00
sg95
g198
sg2088
Nsg2089
Nsg2090
I00
sg1560
Nsg1613
Nsg2091
g2092
sg1497
g1158
sg1590
F0.8
sg1495
Nsg2045
g1
(g2046
g3
Ntp2259
Rp2260
(dp2261
g2050
I00
sg2051
Nsg2052
g17
(g18
(I0
tp2262
g20
tp2263
Rp2264
(I1
(I2
I2
tp2265
g27
I01
S'\x00\x00\x00\x00\x00\x00\x00\x00\x00\x00\x00\x00\x00\x00\x00\x00\x00\x00\x00\x00\x00\x00\x00\x00\x00\x00\x00\x00\x00\x00\xf0?'
p2266
tp2267
bsg2059
I00
sg2060
F0.1111111111111111
sg2061
I180
sg2062
I00
sbsbsg1536
Nsg1494
Nsg2102
g1
(g2
g3
Ntp2268
Rp2269
(dp2270
g7
g94
sg10
S'butt'
p2271
sg12
Nsg13
I01
sg14
Nsg15
I0
sg16
Nsg32
Nsg39
Nsg40
Nsg41
I00
sg42
(dp2272
sg44
I00
sg45
Nsg2023
F0.8
sg2026
Nsg2063
g2064
sg2065
g2066
sg1518
Nsg1520
I01
sg2016
(I0
tp2273
sg1491
I0
sg1535
I01
sg2090
I01
sg2087
I01
sg95
g198
sg2089
Nsg2109
F2.01
sg1667
g1668
sg2084
I5
sg1468
g1471
sg2020
Nsg1479
Nsg1496
Nsg1482
g1483
sg2002
S'round'
p2274
sg1487
Nsg1488
Nsg1492
I00
sg2018
Nsg1495
Nsg2022
Nsg2027
g1
(g2028
g3
Ntp2275
Rp2276
(dp2277
g2027
I2
sg2033
Nsg2034
F1.0
sg95
g1
(g174
g3
Ntp2278
Rp2279
(dp2280
g58
I2
sg119
Nsg118
g17
(g18
(I0
tp2281
g20
tp2282
Rp2283
(I1
(I3
I3
tp2284
g27
I00
S'\x00\x00\x00\x00\x00\x00\xf0?\x00\x00\x00\x00\x00\x00\x00\x00\x00\x00\x00\x00\x00\x00\x00\x00\x00\x00\x00\x00\x00\x00\x00\x00\x00\x00\x00\x00\x00\x00\xf0?\x00\x00\x00\x00\x00\x00\x00\x00\x00\x00\x00\x00\x00\x00\x00\x00\x00\x00\x00\x00\x00\x00\x00\x00\x00\x00\x00\x00\x00\x00\xf0?'
p2285
tp2286
bsg93
g94
sg76
(dp2287
sbsg2039
I00
sg2040
g2041
sg2042
Nsg1611
g2043
sg1598
g2044
sg2045
g2125
sbsg2024
g2025
sg1497
Nsg1494
Nsg1594
I01
sg2068
Nsg1600
g2133
sg1522
g1
(g1523
g1524
((lp2288
(lp2289
tp2290
tp2291
Rp2292
sg2021
I00
sg2081
g2082
sg1999
S'projecting'
p2293
sg2083
Nsg1536
Nsg2085
S'round'
p2294
sg2067
F3.5
sg1467
I01
sg2088
Nsg1560
Nsg1613
Nsg2091
g2141
sg1590
F1.5
sg2045
Nsbsg95
Nsg2142
g2143
sg2144
g2145
sg2146
g2075
sg2147
(g2148
I0
tp2295
sg1560
Nsg1667
g1668
sg2150
g1
(g2
g3
Ntp2296
Rp2297
(dp2298
g7
g94
sg10
S'butt'
p2299
sg12
Nsg13
I01
sg14
Nsg15
I0
sg16
Nsg32
Nsg39
Nsg40
Nsg41
I00
sg42
(dp2300
sg44
I00
sg45
Nsg2023
F0.8
sg2026
Nsg2063
g2064
sg2065
g2066
sg1518
Nsg1520
I01
sg2016
(I0
tp2301
sg1491
I0
sg1535
I01
sg2090
I01
sg2087
I01
sg95
g198
sg2089
Nsg2109
F2.01
sg1667
g1668
sg2084
I5
sg1468
g1471
sg2020
Nsg1479
Nsg1496
Nsg1482
g1483
sg2002
S'round'
p2302
sg1487
Nsg1488
Nsg1492
I00
sg2018
Nsg1495
Nsg2022
Nsg2027
g1
(g2028
g3
Ntp2303
Rp2304
(dp2305
g2027
I3
sg2033
Nsg2034
F1.0
sg95
g1
(g174
g3
Ntp2306
Rp2307
(dp2308
g58
I2
sg119
Nsg118
g17
(g18
(I0
tp2309
g20
tp2310
Rp2311
(I1
(I3
I3
tp2312
g27
I00
S'\x00\x00\x00\x00\x00\x00\xf0?\x00\x00\x00\x00\x00\x00\x00\x00\x00\x00\x00\x00\x00\x00\x00\x00\x00\x00\x00\x00\x00\x00\x00\x00\x00\x00\x00\x00\x00\x00\xf0\xbf\x00\x00\x00\x00\x00\x00\x00\x00\x00\x00\x00\x00\x00\x00\x00\x00\x00\x00\x00\x00\x00\x00\x00\x00\x00\x00\x00\x00\x00\x00\xf0?'
p2313
tp2314
bsg93
g94
sg76
(dp2315
sbsg2039
I00
sg2040
g2041
sg2042
Nsg1611
g2043
sg1598
g2044
sg2045
g2125
sbsg2024
g2025
sg1497
Nsg1494
Nsg1594
I01
sg2068
Nsg1600
g2171
sg1522
g1
(g1523
g1524
((lp2316
(lp2317
tp2318
tp2319
Rp2320
sg2021
I00
sg2081
g2082
sg1999
S'projecting'
p2321
sg2083
Nsg1536
Nsg2085
S'round'
p2322
sg2067
F3.5
sg1467
I01
sg2088
Nsg1560
Nsg1613
Nsg2091
g2179
sg1590
F1.5
sg2045
Nsbsg1495
NsbasS'isDefault_majloc'
p2323
I01
sg1511
g1
(g1512
g3
Ntp2324
Rp2325
(dp2326
g1516
g1517
sbsg1518
Nsg1520
I01
sS'_autolabelpos'
p2327
I01
sg1522
g1
(g1523
g1524
((lp2328
(lp2329
tp2330
tp2331
Rp2332
sg1491
I0
sS'converter'
p2333
Nsg1535
I00
sg1536
NsS'offset_text_position'
p2334
Vbottom
p2335
sg95
NsS'label_position'
p2336
Vbottom
p2337
sg1560
Nsg1613
Nsg2084
I15
sS'minorTicks'
p2338
(lp2339
g1
(g1931
g3
Ntp2340
Rp2341
(dp2342
g7
g94
sg1558
F0.6
sg1468
g1471
sg1935
I01
sg1467
I01
sg1535
I00
sg1479
Nsg1491
I0
sg1496
Nsg1936
F5.4
sg1937
g1668
sg1924
I00
sg1646
F2.0
sg1482
g1483
sg1938
g1939
sg1886
g1
(g1463
g3
Ntp2343
Rp2344
(dp2345
g7
g94
sg1467
I01
sg1468
g1471
sg1479
Nsg1634
g1
(g1635
g3
Ntp2346
Rp2347
(dp2348
g1639
(lp2349
Vsans-serif
p2350
asg1642
Nsg1643
g1644
sg1645
g1644
sg1646
F10.0
sg1647
g1644
sg1648
g1644
sbsg1496
Nsg1482
g1483
sg1649
Nsg13
I01
sg1487
Nsg16
I0
sg32
I0
sg39
Nsg1488
Nsg40
Nsg1492
I00
sg41
I00
sg42
(dp2351
sg1651
Nsg44
I00
sg45
Nsg1497
Nsg1613
Nsg1652
Nsg1494
Nsg1518
Nsg1520
I01
sg1653
g1949
sg1655
S''
p2352
sg1657
Nsg1522
g1
(g1523
g1524
((lp2353
(lp2354
tp2355
tp2356
Rp2357
sg1491
I0
sg1663
Nsg1535
I01
sg1536
Nsg1664
F1.2
sg95
g230
sg1665
I00
sg1666
I00
sg1560
Nsg1667
g1668
sg1669
g1956
sg1495
Nsbsg13
I01
sg1487
Nsg1957
I00
sg39
Nsg1488
Nsg1958
g1959
sg40
Nsg1960
I00
sg1492
I00
sg1961
(dp2358
sg41
I00
sg42
(dp2359
sg1964
(I3
I2
tp2360
sg44
I00
sg1966
I2
sg45
g51
sg1967
I01
sg1497
g728
sg1613
Nsg1968
g2344
sg1969
g1
(g1463
g3
Ntp2361
Rp2362
(dp2363
g7
g94
sg1467
I01
sg1468
g1471
sg1479
Nsg1634
g1
(g1635
g3
Ntp2364
Rp2365
(dp2366
g1639
(lp2367
Vsans-serif
p2368
asg1642
Nsg1643
g1644
sg1645
g1644
sg1646
F10.0
sg1647
g1644
sg1648
g1644
sbsg1496
Nsg1482
g1483
sg1649
Nsg13
I01
sg1487
Nsg16
I1
sg32
I0
sg39
Nsg1488
Nsg40
Nsg1492
I00
sg41
I00
sg42
(dp2369
sg1651
Nsg44
I00
sg45
Nsg1497
Nsg1613
Nsg1652
Nsg1494
Nsg1518
Nsg1520
I01
sg1653
g1979
sg1655
S''
p2370
sg1657
Nsg1522
g1
(g1523
g1524
((lp2371
(lp2372
tp2373
tp2374
Rp2375
sg1491
I0
sg1663
Nsg1535
I01
sg1536
Nsg1664
F1.2
sg95
g203
sg1665
I00
sg1666
I00
sg1560
Nsg1667
g1668
sg1669
g1956
sg1495
Nsbsg1518
Nsg1986
I0
sg1520
I01
sg1522
g1
(g1523
g1524
((lp2376
(lp2377
tp2378
tp2379
Rp2380
sg1992
F3.4
sg1993
F0.8
sg1994
F1.0
sg1995
g1
(g2
g3
Ntp2381
Rp2382
(dp2383
g7
g94
sg1467
I01
sg1999
S'projecting'
p2384
sg1468
g1471
sg10
S'butt'
p2385
sg12
Nsg1479
Nsg1496
Nsg1482
g1483
sg2002
S'round'
p2386
sg13
I01
sg14
Nsg1487
Nsg16
g17
(g18
(I0
tp2387
g20
tp2388
Rp2389
(I1
(I2
tp2390
g27
I00
S'\x00\x00\x00\x00\x00\x00\x00\x00\x00\x00\x00\x00\x00\x00\xf0?'
p2391
tp2392
bsg32
g17
(g18
(I0
tp2393
g20
tp2394
Rp2395
(I1
(I2
tp2396
g27
I00
S'\x00\x00\x00\x00\x00\x00\x00\x00\x00\x00\x00\x00\x00\x00\x00\x00'
p2397
tp2398
bsg39
Nsg1488
Nsg40
Nsg2016
g2017
sg1492
I00
sg2018
Nsg41
I00
sg42
(dp2399
sg2020
Nsg44
I00
sg2021
I00
sg45
Nsg2022
Nsg2023
F1.0
sg2024
g2025
sg2026
Nsg1667
g1959
sg2027
g1
(g2028
g3
Ntp2400
Rp2401
(dp2402
g2027
g2032
sg2033
Nsg2034
Nsg95
g1
(g757
g3
Ntp2403
Rp2404
(dp2405
g58
I1
sg119
Nsg93
g94
sg76
(dp2406
sbsg2039
I00
sg2040
g2041
sg2042
Nsg1611
g2043
sg1598
g2044
sg2045
g2048
sbsg1494
Nsg2063
g2064
sg1594
I01
sg2065
g2066
sg1518
Nsg2067
F0.0
sg1520
I01
sg2068
g17
(g18
(I0
tp2407
g20
tp2408
Rp2409
(I1
(I2
I2
tp2410
g27
I00
S'\x00\x00\x00\x00\x00\x00\x00\x00\x00\x00\x00\x00\x00\x00\x00\x00\x00\x00\x00\x00\x00\x00\x00\x00\x00\x00\x00\x00\x00\x00\xf0?'
p2411
tp2412
bsg1600
g2075
sg1522
g1
(g1523
g1524
((lp2413
(lp2414
tp2415
tp2416
Rp2417
sg1491
I0
sg2081
g2082
sg15
I0
sg2083
Nsg2084
I5
sg1535
I01
sg1536
F1.0
sg2085
S'round'
p2418
sg2087
I00
sg95
g198
sg2088
Nsg2089
Nsg2090
I00
sg1560
Nsg1613
Nsg2091
g2092
sg1497
g878
sg1590
F0.8
sg1495
Nsg2045
g1
(g2046
g3
Ntp2419
Rp2420
(dp2421
g2050
I00
sg2051
Nsg2052
g17
(g18
(I0
tp2422
g20
tp2423
Rp2424
(I1
(I2
I2
tp2425
g27
I01
S'\x00\x00\x00\x00\x00\x00\x00\x00\x00\x00\x00\x00\x00\x00\x00\x00\x00\x00\x00\x00\x00\x00\x00\x00\x00\x00\x00\x00\x00\x00\xf0?'
p2426
tp2427
bsg2059
I00
sg2060
F0.1111111111111111
sg2061
I180
sg2062
I00
sbsbsg1536
Nsg1494
Nsg2102
g1
(g2
g3
Ntp2428
Rp2429
(dp2430
g7
g94
sg10
S'butt'
p2431
sg12
Nsg13
I01
sg14
Nsg15
I0
sg16
Nsg32
Nsg39
Nsg40
Nsg41
I00
sg42
(dp2432
sg44
I00
sg45
Nsg2023
F0.6
sg2026
Nsg2063
g2064
sg2065
g2066
sg1518
Nsg1520
I01
sg2016
(I0
tp2433
sg1491
I0
sg1535
I01
sg2090
I01
sg2087
I01
sg95
g198
sg2089
Nsg2109
I2
sg1667
g1668
sg2084
I5
sg1468
g1471
sg2020
Nsg1479
Nsg1496
Nsg1482
g1483
sg2002
S'round'
p2434
sg1487
Nsg1488
Nsg1492
I00
sg2018
Nsg1495
Nsg2022
Nsg2027
g1
(g2028
g3
Ntp2435
Rp2436
(dp2437
g2027
I2
sg2033
Nsg2034
F1.0
sg95
g1
(g174
g3
Ntp2438
Rp2439
(dp2440
g58
I2
sg119
Nsg118
g17
(g18
(I0
tp2441
g20
tp2442
Rp2443
(I1
(I3
I3
tp2444
g27
I00
S'\x00\x00\x00\x00\x00\x00\xf0?\x00\x00\x00\x00\x00\x00\x00\x00\x00\x00\x00\x00\x00\x00\x00\x00\x00\x00\x00\x00\x00\x00\x00\x00\x00\x00\x00\x00\x00\x00\xf0?\x00\x00\x00\x00\x00\x00\x00\x00\x00\x00\x00\x00\x00\x00\x00\x00\x00\x00\x00\x00\x00\x00\x00\x00\x00\x00\x00\x00\x00\x00\xf0?'
p2445
tp2446
bsg93
g94
sg76
(dp2447
sbsg2039
I00
sg2040
g2041
sg2042
Nsg1611
g2043
sg1598
g2044
sg2045
g2125
sbsg2024
g2025
sg1497
Nsg1494
Nsg1594
I01
sg2068
Nsg1600
g2133
sg1522
g1
(g1523
g1524
((lp2448
(lp2449
tp2450
tp2451
Rp2452
sg2021
I00
sg2081
g2082
sg1999
S'projecting'
p2453
sg2083
Nsg1536
Nsg2085
S'round'
p2454
sg2067
F2.0
sg1467
I01
sg2088
Nsg1560
Nsg1613
Nsg2091
g2141
sg1590
F1.5
sg2045
Nsbsg95
Nsg2142
g2143
sg2144
g2145
sg2146
g2075
sg2147
(g2148
I0
tp2455
sg1560
Nsg1667
g1668
sg2150
g1
(g2
g3
Ntp2456
Rp2457
(dp2458
g7
g94
sg10
S'butt'
p2459
sg12
Nsg13
I01
sg14
Nsg15
I0
sg16
Nsg32
Nsg39
Nsg40
Nsg41
I00
sg42
(dp2460
sg44
I00
sg45
Nsg2023
F0.6
sg2026
Nsg2063
g2064
sg2065
g2066
sg1518
Nsg1520
I01
sg2016
(I0
tp2461
sg1491
I0
sg1535
I01
sg2090
I01
sg2087
I01
sg95
g198
sg2089
Nsg2109
I2
sg1667
g1668
sg2084
I5
sg1468
g1471
sg2020
Nsg1479
Nsg1496
Nsg1482
g1483
sg2002
S'round'
p2462
sg1487
Nsg1488
Nsg1492
I00
sg2018
Nsg1495
Nsg2022
Nsg2027
g1
(g2028
g3
Ntp2463
Rp2464
(dp2465
g2027
I3
sg2033
Nsg2034
F1.0
sg95
g1
(g174
g3
Ntp2466
Rp2467
(dp2468
g58
I2
sg119
Nsg118
g17
(g18
(I0
tp2469
g20
tp2470
Rp2471
(I1
(I3
I3
tp2472
g27
I00
S'\x00\x00\x00\x00\x00\x00\xf0?\x00\x00\x00\x00\x00\x00\x00\x00\x00\x00\x00\x00\x00\x00\x00\x00\x00\x00\x00\x00\x00\x00\x00\x00\x00\x00\x00\x00\x00\x00\xf0\xbf\x00\x00\x00\x00\x00\x00\x00\x00\x00\x00\x00\x00\x00\x00\x00\x00\x00\x00\x00\x00\x00\x00\x00\x00\x00\x00\x00\x00\x00\x00\xf0?'
p2473
tp2474
bsg93
g94
sg76
(dp2475
sbsg2039
I00
sg2040
g2041
sg2042
Nsg1611
g2043
sg1598
g2044
sg2045
g2125
sbsg2024
g2025
sg1497
Nsg1494
Nsg1594
I01
sg2068
Nsg1600
g2171
sg1522
g1
(g1523
g1524
((lp2476
(lp2477
tp2478
tp2479
Rp2480
sg2021
I00
sg2081
g2082
sg1999
S'projecting'
p2481
sg2083
Nsg1536
Nsg2085
S'round'
p2482
sg2067
F2.0
sg1467
I01
sg2088
Nsg1560
Nsg1613
Nsg2091
g2179
sg1590
F1.5
sg2045
Nsbsg1495
Nsbasg1495
NsS'_minor_tick_kw'
p2483
(dp2484
g1921
I01
sg1922
I01
sg1923
I00
sg1925
I00
ssS'isDefault_minfmt'
p2485
I01
sbsS'_navigate_mode'
p2486
Nsg1495
NsS'transAxes'
p2487
g116
sS'_connected'
p2488
(dp2489
sS'fmt_ydata'
p2490
NsS'dataLim'
p2491
g1
(g65
g3
Ntp2492
Rp2493
(dp2494
g58
I0
sg69
g17
(g18
(I0
tp2495
g20
tp2496
Rp2497
(I1
(I2
tp2498
g27
I00
S'\x00\x00\x00\x00\x00\x00\xf0?\x00\x00\x00\x00\x00\x00\xf0?'
p2499
tp2500
bsg76
(dp2501
sg78
g17
(g18
(I0
tp2502
g20
tp2503
Rp2504
(I1
(I2
I2
tp2505
g27
I00
S'\x00\x00\x00\x00\x00\x00\xf0\x7f\x00\x00\x00\x00\x00\x00\xf0\x7f\x00\x00\x00\x00\x00\x00\xf0\xff\x00\x00\x00\x00\x00\x00\xf0\xff'
p2506
tp2507
bsg85
g17
(g18
(I0
tp2508
g20
tp2509
Rp2510
(I1
(I2
I2
tp2511
g27
I00
S'\x00\x00\x00\x00\x00\x00\xf0?\x00\x00\x00\x00\x00\x00\xf0?\x00\x00\x00\x00\x00\x00\x14@\x00\x00\x00\x00\x00\x009@'
p2512
tp2513
bsg92
I01
sg93
g94
sbsS'transData'
p2514
g105
sg1494
NsS'_sharey'
p2515
NsS'_sharex'
p2516
NsS'_ymargin'
p2517
F0.05
sS'_axes_locator'
p2518
Nsg1522
g1
(g1523
g1524
((lp2519
(lp2520
tp2521
tp2522
Rp2523
sS'numCols'
p2524
I1
sg1536
Nsg1519
NsS'yaxis'
p2525
g1
(cmatplotlib.axis
YAxis
p2526
g3
Ntp2527
Rp2528
(dp2529
g7
g94
sg1815
g1
(g1816
g3
Ntp2530
Rp2531
(dp2532
g1820
g1
(g1821
g3
Ntp2533
Rp2534
(dp2535
g1825
I2
sg1826
I00
sg1827
g1828
sg1829
g17
(g18
(I0
tp2536
g20
tp2537
Rp2538
(I1
(I5
tp2539
g27
I00
S'\x00\x00\x00\x00\x00\x00\xf0?\x00\x00\x00\x00\x00\x00\x00@\x00\x00\x00\x00\x00\x00\x04@\x00\x00\x00\x00\x00\x00\x14@\x00\x00\x00\x00\x00\x00$@'
p2540
tp2541
bsg1836
Nsg1837
g17
(g18
(I0
tp2542
g20
tp2543
Rp2544
(I1
(I10
tp2545
g27
I00
S'\x9a\x99\x99\x99\x99\x99\xb9?\x9a\x99\x99\x99\x99\x99\xc9?\x00\x00\x00\x00\x00\x00\xd0?\x00\x00\x00\x00\x00\x00\xe0?\x00\x00\x00\x00\x00\x00\xf0?\x00\x00\x00\x00\x00\x00\x00@\x00\x00\x00\x00\x00\x00\x04@\x00\x00\x00\x00\x00\x00\x14@\x00\x00\x00\x00\x00\x00$@\x00\x00\x00\x00\x00\x004@'
p2546
tp2547
bsg1844
I00
sg1845
g2528
sbsg1846
g1
(g1847
g3
Ntp2548
Rp2549
(dp2550
g1851
g1852
sg1853
I0
sg1854
I01
sg1855
I00
sg1856
g94
sg1857
I00
sg1858
I4
sg1859
I0
sg1665
I00
sg1860
I01
sg1845
g2528
sbsbsg1861
I01
sg1862
g1
(g1863
g3
Ntp2551
Rp2552
sg1468
g1471
sg1467
I01
sg1866
I00
sg1479
Nsg1496
Nsg1867
I00
sg1482
g1483
sg13
I01
sg1487
Nsg1868
g1
(g1463
g3
Ntp2553
Rp2554
(dp2555
g7
g94
sg1467
I01
sg1468
g1471
sg1479
Nsg1634
g1
(g1635
g3
Ntp2556
Rp2557
(dp2558
g1639
(lp2559
Vsans-serif
p2560
asg1642
Nsg1643
g1644
sg1645
g1644
sg1646
F10.0
sg1647
g1644
sg1648
g1644
sbsg1496
Nsg1482
g1483
sg1649
Nsg13
I01
sg1487
Nsg16
F0.5
sg32
I0
sg39
Nsg1488
Nsg40
Nsg1492
I00
sg41
I00
sg42
(dp2561
sg1651
Nsg44
I00
sg45
Nsg1497
Nsg1613
Nsg1652
Nsg1494
Nsg1518
Nsg1520
I01
sg1653
Vbaseline
p2562
sg1655
S''
p2563
sg1657
Nsg1522
g1
(g1523
g1524
((lp2564
(lp2565
tp2566
tp2567
Rp2568
sg1491
I0
sg1663
Nsg1535
I01
sg1536
Nsg1664
F1.2
sg95
g1192
sg1665
I00
sg1666
I00
sg1560
Nsg1667
g1668
sg1669
Vleft
p2569
sg1495
Nsbsg39
Nsg1488
Nsg40
Nsg1886
g1
(g1463
g3
Ntp2570
Rp2571
(dp2572
g7
g94
sg1467
I01
sg1468
g1471
sg1479
Nsg1634
g1
(g1635
g3
Ntp2573
Rp2574
(dp2575
g1639
(lp2576
Vsans-serif
p2577
asg1642
Nsg1643
g1644
sg1645
g1644
sg1646
F10.0
sg1647
g1644
sg1648
g1644
sbsg1496
Nsg1482
g1483
sg1649
Nsg13
I01
sg1487
Nsg16
F0.5
sg32
I0
sg39
Nsg1488
Nsg40
Nsg1492
I00
sg41
I00
sg42
(dp2578
sg1651
Nsg44
I00
sg45
Nsg1497
Nsg1613
Nsg1652
Vanchor
p2579
sg1494
Nsg1518
Nsg1520
I01
sg1653
Vbottom
p2580
sg1655
V
p2581
sg1657
Nsg1522
g1
(g1523
g1524
((lp2582
(lp2583
tp2584
tp2585
Rp2586
sg1491
I0
sg1663
Vvertical
p2587
sg1535
I01
sg1536
Nsg1664
F1.2
sg95
g1184
sg1665
I00
sg1666
I00
sg1560
Nsg1667
g1668
sg1669
Vcenter
p2588
sg1495
Nsbsg1492
I00
sg1904
I01
sg41
I00
sg42
(dp2589
sg1906
Nsg44
I00
sg1907
g1
(g1816
g3
Ntp2590
Rp2591
(dp2592
g1820
g1
(g1911
g3
Ntp2593
Rp2594
(dp2595
g1845
g2528
sbsg1846
g1
(g1915
g3
Ntp2596
Rp2597
(dp2598
g1845
g2528
sbsbsg45
g51
sg1919
(dp2599
g1921
I01
sg1922
I01
sg1923
I00
sg1924
I00
sg1925
I00
ssg1926
I01
sg1497
g1088
sg1494
Nsg1927
I00
sg1928
F4.0
sg1929
(lp2600
g1
(cmatplotlib.axis
YTick
p2601
g3
Ntp2602
Rp2603
(dp2604
g7
g94
sg1558
F0.8
sg1468
g1471
sg1935
I01
sg1467
I01
sg1535
I00
sg1479
Nsg1491
I0
sg1496
Nsg1936
F7.0
sg1937
g1668
sg1924
I00
sg1646
F3.5
sg1482
g1483
sg1938
g1939
sg1886
g1
(g1463
g3
Ntp2605
Rp2606
(dp2607
g7
g94
sg1467
I01
sg1468
g1471
sg1479
Nsg1634
g1
(g1635
g3
Ntp2608
Rp2609
(dp2610
g1639
(lp2611
Vsans-serif
p2612
asg1642
Nsg1643
g1644
sg1645
g1644
sg1646
F10.0
sg1647
g1644
sg1648
g1644
sbsg1496
Nsg1482
g1483
sg1649
Nsg13
I01
sg1487
Nsg16
I0
sg32
I0
sg39
Nsg1488
Nsg40
Nsg1492
I00
sg41
I00
sg42
(dp2613
sg1651
Nsg44
I00
sg45
Nsg1497
Nsg1613
Nsg1652
Nsg1494
Nsg1518
Nsg1520
I01
sg1653
S'center_baseline'
p2614
sg1655
S''
p2615
sg1657
Nsg1522
g1
(g1523
g1524
((lp2616
(lp2617
tp2618
tp2619
Rp2620
sg1491
I0
sg1663
Nsg1535
I01
sg1536
Nsg1664
F1.2
sg95
g297
sg1665
I00
sg1666
I00
sg1560
Nsg1667
g1668
sg1669
Vright
p2621
sg1495
Nsbsg13
I01
sg1487
Nsg1957
I00
sg39
Nsg1488
Nsg1958
g1959
sg40
Nsg1960
I00
sg1492
I00
sg1961
(dp2622
sg41
I00
sg42
(dp2623
sg1964
(I0
I1
tp2624
sg44
I00
sg1966
F2.01
sg45
g51
sg1967
I01
sg1497
g448
sg1613
Nsg1968
g2606
sg1969
g1
(g1463
g3
Ntp2625
Rp2626
(dp2627
g7
g94
sg1467
I01
sg1468
g1471
sg1479
Nsg1634
g1
(g1635
g3
Ntp2628
Rp2629
(dp2630
g1639
(lp2631
Vsans-serif
p2632
asg1642
Nsg1643
g1644
sg1645
g1644
sg1646
F10.0
sg1647
g1644
sg1648
g1644
sbsg1496
Nsg1482
g1483
sg1649
Nsg13
I01
sg1487
Nsg16
I0
sg32
I1
sg39
Nsg1488
Nsg40
Nsg1492
I00
sg41
I00
sg42
(dp2633
sg1651
Nsg44
I00
sg45
Nsg1497
Nsg1613
Nsg1652
Nsg1494
Nsg1518
Nsg1520
I01
sg1653
g2614
sg1655
S''
p2634
sg1657
Nsg1522
g1
(g1523
g1524
((lp2635
(lp2636
tp2637
tp2638
Rp2639
sg1491
I0
sg1663
Nsg1535
I01
sg1536
Nsg1664
F1.2
sg95
g288
sg1665
I00
sg1666
I00
sg1560
Nsg1667
g1668
sg1669
Vleft
p2640
sg1495
Nsbsg1518
Nsg1986
I0
sg1520
I01
sg1522
g1
(g1523
g1524
((lp2641
(lp2642
tp2643
tp2644
Rp2645
sg1992
F3.5
sg1993
F0.8
sg1994
F1.0
sg1995
g1
(g2
g3
Ntp2646
Rp2647
(dp2648
g7
g94
sg1467
I01
sg1999
S'projecting'
p2649
sg1468
g1471
sg10
S'butt'
p2650
sg12
Nsg1479
Nsg1496
Nsg1482
g1483
sg2002
S'round'
p2651
sg13
I01
sg14
Nsg1487
Nsg16
g17
(g18
(I0
tp2652
g20
tp2653
Rp2654
(I1
(I2
tp2655
g27
I00
S'\x00\x00\x00\x00\x00\x00\x00\x00\x00\x00\x00\x00\x00\x00\x00\x00'
p2656
tp2657
bsg32
g17
(g18
(I0
tp2658
g20
tp2659
Rp2660
(I1
(I2
tp2661
g27
I00
S'\x00\x00\x00\x00\x00\x00\x00\x00\x00\x00\x00\x00\x00\x00\xf0?'
p2662
tp2663
bsg39
Nsg1488
Nsg40
Nsg2016
(I0
I1
tp2664
sg1492
I00
sg2018
Nsg41
I00
sg42
(dp2665
sg2020
Nsg44
I00
sg2021
I00
sg45
Nsg2022
Nsg2023
F1.0
sg2024
g2025
sg2026
Nsg1667
g1959
sg2027
g1
(g2028
g3
Ntp2666
Rp2667
(dp2668
g2027
g2032
sg2033
Nsg2034
Nsg95
g1
(g757
g3
Ntp2669
Rp2670
(dp2671
g58
I1
sg119
Nsg93
g94
sg76
(dp2672
sbsg2039
I00
sg2040
g2041
sg2042
Nsg1611
g2043
sg1598
g2044
sg2045
g2048
sbsg1494
Nsg2063
g2064
sg1594
I01
sg2065
g2066
sg1518
Nsg2067
F0.0
sg1520
I01
sg2068
g17
(g18
(I0
tp2673
g20
tp2674
Rp2675
(I1
(I2
I2
tp2676
g27
I00
S'\x00\x00\x00\x00\x00\x00\x00\x00\x00\x00\x00\x00\x00\x00\x00\x00\x00\x00\x00\x00\x00\x00\xf0?\x00\x00\x00\x00\x00\x00\x00\x00'
p2677
tp2678
bsg1600
g2075
sg1522
g1
(g1523
g1524
((lp2679
(lp2680
tp2681
tp2682
Rp2683
sg1491
I0
sg2081
g2082
sg15
I0
sg2083
Nsg2084
I5
sg1535
I01
sg1536
F1.0
sg2085
S'round'
p2684
sg2087
I00
sg95
g257
sg2088
Nsg2089
Nsg2090
I00
sg1560
Nsg1613
Nsg2091
(I0
I0
tp2685
sg1497
g378
sg1590
F0.8
sg1495
Nsg2045
g1
(g2046
g3
Ntp2686
Rp2687
(dp2688
g2050
I00
sg2051
Nsg2052
g17
(g18
(I0
tp2689
g20
tp2690
Rp2691
(I1
(I2
I2
tp2692
g27
I01
S'\x00\x00\x00\x00\x00\x00\x00\x00\x00\x00\x00\x00\x00\x00\xf0?\x00\x00\x00\x00\x00\x00\x00\x00\x00\x00\x00\x00\x00\x00\x00\x00'
p2693
tp2694
bsg2059
I00
sg2060
F0.1111111111111111
sg2061
I180
sg2062
I00
sbsbsg1536
Nsg1494
Nsg2102
g1
(g2
g3
Ntp2695
Rp2696
(dp2697
g7
g94
sg10
S'butt'
p2698
sg12
Nsg13
I01
sg14
Nsg15
I0
sg16
Nsg32
Nsg39
Nsg40
Nsg41
I00
sg42
(dp2699
sg44
I00
sg45
Nsg2023
F0.8
sg2026
Nsg2063
g2064
sg2065
g2066
sg1518
Nsg1520
I01
sg2016
(I1
tp2700
sg1491
I0
sg1535
I01
sg2090
I01
sg2087
I01
sg95
g257
sg2089
Nsg2109
F2.01
sg1667
g1668
sg2084
I5
sg1468
g1471
sg2020
Nsg1479
Nsg1496
Nsg1482
g1483
sg2002
S'round'
p2701
sg1487
Nsg1488
Nsg1492
I00
sg2018
Nsg1495
Nsg2022
Nsg2027
g1
(g2028
g3
Ntp2702
Rp2703
(dp2704
g2027
I1
sg2033
Nsg2034
F1.0
sg95
g1
(g174
g3
Ntp2705
Rp2706
(dp2707
g58
I2
sg119
Nsg118
g17
(g18
(I0
tp2708
g20
tp2709
Rp2710
(I1
(I3
I3
tp2711
g27
I00
S'\x00\x00\x00\x00\x00\x00\xf0?\x00\x00\x00\x00\x00\x00\x00\x00\x00\x00\x00\x00\x00\x00\x00\x00\x00\x00\x00\x00\x00\x00\x00\x00\x00\x00\x00\x00\x00\x00\xf0?\x00\x00\x00\x00\x00\x00\x00\x00\x00\x00\x00\x00\x00\x00\x00\x00\x00\x00\x00\x00\x00\x00\x00\x00\x00\x00\x00\x00\x00\x00\xf0?'
p2712
tp2713
bsg93
g94
sg76
(dp2714
sbsg2039
I00
sg2040
g2041
sg2042
Nsg1611
g2043
sg1598
g2044
sg2045
g1
(g2046
g3
Ntp2715
Rp2716
(dp2717
g2050
I00
sg2051
Nsg2052
g17
(g18
(I0
tp2718
g20
tp2719
Rp2720
(I1
(I2
I2
tp2721
g27
I00
S'\x00\x00\x00\x00\x00\x00\x00\x00\x00\x00\x00\x00\x00\x00\x00\x00\x00\x00\x00\x00\x00\x00\xf0?\x00\x00\x00\x00\x00\x00\x00\x00'
p2722
tp2723
bsg2059
I00
sg2060
F0.1111111111111111
sg2061
I1
sg2062
I00
sbsbsg2024
g2025
sg1497
Nsg1494
Nsg1594
I01
sg2068
Nsg1600
VNone
p2724
sg1522
g1
(g1523
g1524
((lp2725
(lp2726
tp2727
tp2728
Rp2729
sg2021
I00
sg2081
g2082
sg1999
S'projecting'
p2730
sg2083
Nsg1536
Nsg2085
S'round'
p2731
sg2067
F3.5
sg1467
I01
sg2088
Nsg1560
Nsg1613
Nsg2091
(I0
tp2732
sg1590
F1.5
sg2045
Nsbsg95
Nsg2142
S'medium'
p2733
sg2144
Vytick
p2734
sg2146
g2075
sg2147
(g2148
I0
tp2735
sg1560
Nsg1667
g1668
sg2150
g1
(g2
g3
Ntp2736
Rp2737
(dp2738
g7
g94
sg10
S'butt'
p2739
sg12
Nsg13
I01
sg14
Nsg15
I0
sg16
Nsg32
Nsg39
Nsg40
Nsg41
I00
sg42
(dp2740
sg44
I00
sg45
Nsg2023
F0.8
sg2026
Nsg2063
g2064
sg2065
g2066
sg1518
Nsg1520
I01
sg2016
(I0
tp2741
sg1491
I0
sg1535
I01
sg2090
I01
sg2087
I01
sg95
g257
sg2089
Nsg2109
F2.01
sg1667
g1668
sg2084
I5
sg1468
g1471
sg2020
Nsg1479
Nsg1496
Nsg1482
g1483
sg2002
S'round'
p2742
sg1487
Nsg1488
Nsg1492
I00
sg2018
Nsg1495
Nsg2022
Nsg2027
g1
(g2028
g3
Ntp2743
Rp2744
(dp2745
g2027
I0
sg2033
Nsg2034
F1.0
sg95
g1
(g174
g3
Ntp2746
Rp2747
(dp2748
g58
I2
sg119
Nsg118
g17
(g18
(I0
tp2749
g20
tp2750
Rp2751
(I1
(I3
I3
tp2752
g27
I00
S'\x00\x00\x00\x00\x00\x00\xf0\xbf\x00\x00\x00\x00\x00\x00\x00\x00\x00\x00\x00\x00\x00\x00\x00\x00\x00\x00\x00\x00\x00\x00\x00\x00\x00\x00\x00\x00\x00\x00\xf0?\x00\x00\x00\x00\x00\x00\x00\x00\x00\x00\x00\x00\x00\x00\x00\x00\x00\x00\x00\x00\x00\x00\x00\x00\x00\x00\x00\x00\x00\x00\xf0?'
p2753
tp2754
bsg93
g94
sg76
(dp2755
sbsg2039
I00
sg2040
g2041
sg2042
Nsg1611
g2043
sg1598
g2044
sg2045
g2716
sbsg2024
g2025
sg1497
Nsg1494
Nsg1594
I01
sg2068
Nsg1600
VNone
p2756
sg1522
g1
(g1523
g1524
((lp2757
(lp2758
tp2759
tp2760
Rp2761
sg2021
I00
sg2081
g2082
sg1999
S'projecting'
p2762
sg2083
Nsg1536
Nsg2085
S'round'
p2763
sg2067
F3.5
sg1467
I01
sg2088
Nsg1560
Nsg1613
Nsg2091
(I0
tp2764
sg1590
F1.5
sg2045
Nsbsg1495
Nsbag1
(g2601
g3
Ntp2765
Rp2766
(dp2767
g7
g94
sg1558
F0.8
sg1468
g1471
sg1935
I01
sg1467
I01
sg1535
I00
sg1479
Nsg1491
I0
sg1496
Nsg1936
F7.0
sg1937
g1668
sg1924
I00
sg1646
F3.5
sg1482
g1483
sg1938
g1939
sg1886
g1
(g1463
g3
Ntp2768
Rp2769
(dp2770
g7
g94
sg1467
I01
sg1468
g1471
sg1479
Nsg1634
g1
(g1635
g3
Ntp2771
Rp2772
(dp2773
g1639
(lp2774
Vsans-serif
p2775
asg1642
Nsg1643
g1644
sg1645
g1644
sg1646
F10.0
sg1647
g1644
sg1648
g1644
sbsg1496
Nsg1482
g1483
sg1649
Nsg13
I01
sg1487
Nsg16
I0
sg32
I0
sg39
Nsg1488
Nsg40
Nsg1492
I00
sg41
I00
sg42
(dp2776
sg1651
Nsg44
I00
sg45
Nsg1497
Nsg1613
Nsg1652
Nsg1494
Nsg1518
Nsg1520
I01
sg1653
g2614
sg1655
S''
p2777
sg1657
Nsg1522
g1
(g1523
g1524
((lp2778
(lp2779
tp2780
tp2781
Rp2782
sg1491
I0
sg1663
Nsg1535
I01
sg1536
Nsg1664
F1.2
sg95
g254
sg1665
I00
sg1666
I00
sg1560
Nsg1667
g1668
sg1669
g2621
sg1495
Nsbsg13
I01
sg1487
Nsg1957
I00
sg39
Nsg1488
Nsg1958
g1959
sg40
Nsg1960
I00
sg1492
I00
sg1961
(dp2783
sg41
I00
sg42
(dp2784
sg1964
(I0
I1
tp2785
sg44
I00
sg1966
F2.01
sg45
g51
sg1967
I01
sg1497
g588
sg1613
Nsg1968
g2769
sg1969
g1
(g1463
g3
Ntp2786
Rp2787
(dp2788
g7
g94
sg1467
I01
sg1468
g1471
sg1479
Nsg1634
g1
(g1635
g3
Ntp2789
Rp2790
(dp2791
g1639
(lp2792
Vsans-serif
p2793
asg1642
Nsg1643
g1644
sg1645
g1644
sg1646
F10.0
sg1647
g1644
sg1648
g1644
sbsg1496
Nsg1482
g1483
sg1649
Nsg13
I01
sg1487
Nsg16
I0
sg32
I1
sg39
Nsg1488
Nsg40
Nsg1492
I00
sg41
I00
sg42
(dp2794
sg1651
Nsg44
I00
sg45
Nsg1497
Nsg1613
Nsg1652
Nsg1494
Nsg1518
Nsg1520
I01
sg1653
g2614
sg1655
S''
p2795
sg1657
Nsg1522
g1
(g1523
g1524
((lp2796
(lp2797
tp2798
tp2799
Rp2800
sg1491
I0
sg1663
Nsg1535
I01
sg1536
Nsg1664
F1.2
sg95
g279
sg1665
I00
sg1666
I00
sg1560
Nsg1667
g1668
sg1669
g2640
sg1495
Nsbsg1518
Nsg1986
I0
sg1520
I01
sg1522
g1
(g1523
g1524
((lp2801
(lp2802
tp2803
tp2804
Rp2805
sg1992
F3.5
sg1993
F0.8
sg1994
F1.0
sg1995
g1
(g2
g3
Ntp2806
Rp2807
(dp2808
g7
g94
sg1467
I01
sg1999
S'projecting'
p2809
sg1468
g1471
sg10
S'butt'
p2810
sg12
Nsg1479
Nsg1496
Nsg1482
g1483
sg2002
S'round'
p2811
sg13
I01
sg14
Nsg1487
Nsg16
g17
(g18
(I0
tp2812
g20
tp2813
Rp2814
(I1
(I2
tp2815
g27
I00
S'\x00\x00\x00\x00\x00\x00\x00\x00\x00\x00\x00\x00\x00\x00\x00\x00'
p2816
tp2817
bsg32
g17
(g18
(I0
tp2818
g20
tp2819
Rp2820
(I1
(I2
tp2821
g27
I00
S'\x00\x00\x00\x00\x00\x00\x00\x00\x00\x00\x00\x00\x00\x00\xf0?'
p2822
tp2823
bsg39
Nsg1488
Nsg40
Nsg2016
g2664
sg1492
I00
sg2018
Nsg41
I00
sg42
(dp2824
sg2020
Nsg44
I00
sg2021
I00
sg45
Nsg2022
Nsg2023
F1.0
sg2024
g2025
sg2026
Nsg1667
g1959
sg2027
g1
(g2028
g3
Ntp2825
Rp2826
(dp2827
g2027
g2032
sg2033
Nsg2034
Nsg95
g1
(g757
g3
Ntp2828
Rp2829
(dp2830
g58
I1
sg119
Nsg93
g94
sg76
(dp2831
sbsg2039
I00
sg2040
g2041
sg2042
Nsg1611
g2043
sg1598
g2044
sg2045
g2048
sbsg1494
Nsg2063
g2064
sg1594
I01
sg2065
g2066
sg1518
Nsg2067
F0.0
sg1520
I01
sg2068
g17
(g18
(I0
tp2832
g20
tp2833
Rp2834
(I1
(I2
I2
tp2835
g27
I00
S'\x00\x00\x00\x00\x00\x00\x00\x00\x00\x00\x00\x00\x00\x00\x00\x00\x00\x00\x00\x00\x00\x00\xf0?\x00\x00\x00\x00\x00\x00\x00\x00'
p2836
tp2837
bsg1600
g2075
sg1522
g1
(g1523
g1524
((lp2838
(lp2839
tp2840
tp2841
Rp2842
sg1491
I0
sg2081
g2082
sg15
I0
sg2083
Nsg2084
I5
sg1535
I01
sg1536
F1.0
sg2085
S'round'
p2843
sg2087
I00
sg95
g257
sg2088
Nsg2089
Nsg2090
I00
sg1560
Nsg1613
Nsg2091
g2685
sg1497
g658
sg1590
F0.8
sg1495
Nsg2045
g1
(g2046
g3
Ntp2844
Rp2845
(dp2846
g2050
I00
sg2051
Nsg2052
g17
(g18
(I0
tp2847
g20
tp2848
Rp2849
(I1
(I2
I2
tp2850
g27
I01
S'\x00\x00\x00\x00\x00\x00\x00\x00\x00\x00\x00\x00\x00\x00\xf0?\x00\x00\x00\x00\x00\x00\x00\x00\x00\x00\x00\x00\x00\x00\x00\x00'
p2851
tp2852
bsg2059
I00
sg2060
F0.1111111111111111
sg2061
I180
sg2062
I00
sbsbsg1536
Nsg1494
Nsg2102
g1
(g2
g3
Ntp2853
Rp2854
(dp2855
g7
g94
sg10
S'butt'
p2856
sg12
Nsg13
I01
sg14
Nsg15
I0
sg16
Nsg32
Nsg39
Nsg40
Nsg41
I00
sg42
(dp2857
sg44
I00
sg45
Nsg2023
F0.8
sg2026
Nsg2063
g2064
sg2065
g2066
sg1518
Nsg1520
I01
sg2016
g2700
sg1491
I0
sg1535
I01
sg2090
I01
sg2087
I01
sg95
g257
sg2089
Nsg2109
F2.01
sg1667
g1668
sg2084
I5
sg1468
g1471
sg2020
Nsg1479
Nsg1496
Nsg1482
g1483
sg2002
S'round'
p2858
sg1487
Nsg1488
Nsg1492
I00
sg2018
Nsg1495
Nsg2022
Nsg2027
g1
(g2028
g3
Ntp2859
Rp2860
(dp2861
g2027
I1
sg2033
Nsg2034
F1.0
sg95
g1
(g174
g3
Ntp2862
Rp2863
(dp2864
g58
I2
sg119
Nsg118
g17
(g18
(I0
tp2865
g20
tp2866
Rp2867
(I1
(I3
I3
tp2868
g27
I00
S'\x00\x00\x00\x00\x00\x00\xf0?\x00\x00\x00\x00\x00\x00\x00\x00\x00\x00\x00\x00\x00\x00\x00\x00\x00\x00\x00\x00\x00\x00\x00\x00\x00\x00\x00\x00\x00\x00\xf0?\x00\x00\x00\x00\x00\x00\x00\x00\x00\x00\x00\x00\x00\x00\x00\x00\x00\x00\x00\x00\x00\x00\x00\x00\x00\x00\x00\x00\x00\x00\xf0?'
p2869
tp2870
bsg93
g94
sg76
(dp2871
sbsg2039
I00
sg2040
g2041
sg2042
Nsg1611
g2043
sg1598
g2044
sg2045
g2716
sbsg2024
g2025
sg1497
Nsg1494
Nsg1594
I01
sg2068
Nsg1600
g2724
sg1522
g1
(g1523
g1524
((lp2872
(lp2873
tp2874
tp2875
Rp2876
sg2021
I00
sg2081
g2082
sg1999
S'projecting'
p2877
sg2083
Nsg1536
Nsg2085
S'round'
p2878
sg2067
F3.5
sg1467
I01
sg2088
Nsg1560
Nsg1613
Nsg2091
(I0
tp2879
sg1590
F1.5
sg2045
Nsbsg95
Nsg2142
g2733
sg2144
g2734
sg2146
g2075
sg2147
(g2148
I0
tp2880
sg1560
Nsg1667
g1668
sg2150
g1
(g2
g3
Ntp2881
Rp2882
(dp2883
g7
g94
sg10
S'butt'
p2884
sg12
Nsg13
I01
sg14
Nsg15
I0
sg16
Nsg32
Nsg39
Nsg40
Nsg41
I00
sg42
(dp2885
sg44
I00
sg45
Nsg2023
F0.8
sg2026
Nsg2063
g2064
sg2065
g2066
sg1518
Nsg1520
I01
sg2016
g2741
sg1491
I0
sg1535
I01
sg2090
I01
sg2087
I01
sg95
g257
sg2089
Nsg2109
F2.01
sg1667
g1668
sg2084
I5
sg1468
g1471
sg2020
Nsg1479
Nsg1496
Nsg1482
g1483
sg2002
S'round'
p2886
sg1487
Nsg1488
Nsg1492
I00
sg2018
Nsg1495
Nsg2022
Nsg2027
g1
(g2028
g3
Ntp2887
Rp2888
(dp2889
g2027
I0
sg2033
Nsg2034
F1.0
sg95
g1
(g174
g3
Ntp2890
Rp2891
(dp2892
g58
I2
sg119
Nsg118
g17
(g18
(I0
tp2893
g20
tp2894
Rp2895
(I1
(I3
I3
tp2896
g27
I00
S'\x00\x00\x00\x00\x00\x00\xf0\xbf\x00\x00\x00\x00\x00\x00\x00\x00\x00\x00\x00\x00\x00\x00\x00\x00\x00\x00\x00\x00\x00\x00\x00\x00\x00\x00\x00\x00\x00\x00\xf0?\x00\x00\x00\x00\x00\x00\x00\x00\x00\x00\x00\x00\x00\x00\x00\x00\x00\x00\x00\x00\x00\x00\x00\x00\x00\x00\x00\x00\x00\x00\xf0?'
p2897
tp2898
bsg93
g94
sg76
(dp2899
sbsg2039
I00
sg2040
g2041
sg2042
Nsg1611
g2043
sg1598
g2044
sg2045
g2716
sbsg2024
g2025
sg1497
Nsg1494
Nsg1594
I01
sg2068
Nsg1600
g2756
sg1522
g1
(g1523
g1524
((lp2900
(lp2901
tp2902
tp2903
Rp2904
sg2021
I00
sg2081
g2082
sg1999
S'projecting'
p2905
sg2083
Nsg1536
Nsg2085
S'round'
p2906
sg2067
F3.5
sg1467
I01
sg2088
Nsg1560
Nsg1613
Nsg2091
(I0
tp2907
sg1590
F1.5
sg2045
Nsbsg1495
Nsbasg2323
I01
sg1511
g1
(g1512
g3
Ntp2908
Rp2909
(dp2910
g1516
g1517
sbsg1518
Nsg1520
I01
sg2327
I01
sg1522
g1
(g1523
g1524
((lp2911
(lp2912
tp2913
tp2914
Rp2915
sg1491
I0
sg2333
Nsg1535
I00
sg1536
Nsg2334
g2569
sg95
Nsg2336
Vleft
p2916
sg1560
Nsg1613
Nsg2084
I15
sg2338
(lp2917
g1
(g2601
g3
Ntp2918
Rp2919
(dp2920
g7
g94
sg1558
F0.6
sg1468
g1471
sg1935
I01
sg1467
I01
sg1535
I00
sg1479
Nsg1491
I0
sg1496
Nsg1936
F5.4
sg1937
g1668
sg1924
I00
sg1646
F2.0
sg1482
g1483
sg1938
g1939
sg1886
g1
(g1463
g3
Ntp2921
Rp2922
(dp2923
g7
g94
sg1467
I01
sg1468
g1471
sg1479
Nsg1634
g1
(g1635
g3
Ntp2924
Rp2925
(dp2926
g1639
(lp2927
Vsans-serif
p2928
asg1642
Nsg1643
g1644
sg1645
g1644
sg1646
F10.0
sg1647
g1644
sg1648
g1644
sbsg1496
Nsg1482
g1483
sg1649
Nsg13
I01
sg1487
Nsg16
I0
sg32
I0
sg39
Nsg1488
Nsg40
Nsg1492
I00
sg41
I00
sg42
(dp2929
sg1651
Nsg44
I00
sg45
Nsg1497
Nsg1613
Nsg1652
Nsg1494
Nsg1518
Nsg1520
I01
sg1653
g2614
sg1655
S''
p2930
sg1657
Nsg1522
g1
(g1523
g1524
((lp2931
(lp2932
tp2933
tp2934
Rp2935
sg1491
I0
sg1663
Nsg1535
I01
sg1536
Nsg1664
F1.2
sg95
g261
sg1665
I00
sg1666
I00
sg1560
Nsg1667
g1668
sg1669
g2621
sg1495
Nsbsg13
I01
sg1487
Nsg1957
I00
sg39
Nsg1488
Nsg1958
g1959
sg40
Nsg1960
I00
sg1492
I00
sg1961
(dp2936
sg41
I00
sg42
(dp2937
sg1964
(I0
I1
tp2938
sg44
I00
sg1966
I2
sg45
g51
sg1967
I01
sg1497
g808
sg1613
Nsg1968
g2922
sg1969
g1
(g1463
g3
Ntp2939
Rp2940
(dp2941
g7
g94
sg1467
I01
sg1468
g1471
sg1479
Nsg1634
g1
(g1635
g3
Ntp2942
Rp2943
(dp2944
g1639
(lp2945
Vsans-serif
p2946
asg1642
Nsg1643
g1644
sg1645
g1644
sg1646
F10.0
sg1647
g1644
sg1648
g1644
sbsg1496
Nsg1482
g1483
sg1649
Nsg13
I01
sg1487
Nsg16
I0
sg32
I1
sg39
Nsg1488
Nsg40
Nsg1492
I00
sg41
I00
sg42
(dp2947
sg1651
Nsg44
I00
sg45
Nsg1497
Nsg1613
Nsg1652
Nsg1494
Nsg1518
Nsg1520
I01
sg1653
g2614
sg1655
S''
p2948
sg1657
Nsg1522
g1
(g1523
g1524
((lp2949
(lp2950
tp2951
tp2952
Rp2953
sg1491
I0
sg1663
Nsg1535
I01
sg1536
Nsg1664
F1.2
sg95
g270
sg1665
I00
sg1666
I00
sg1560
Nsg1667
g1668
sg1669
g2640
sg1495
Nsbsg1518
Nsg1986
I0
sg1520
I01
sg1522
g1
(g1523
g1524
((lp2954
(lp2955
tp2956
tp2957
Rp2958
sg1992
F3.4
sg1993
F0.8
sg1994
F1.0
sg1995
g1
(g2
g3
Ntp2959
Rp2960
(dp2961
g7
g94
sg1467
I01
sg1999
S'projecting'
p2962
sg1468
g1471
sg10
S'butt'
p2963
sg12
Nsg1479
Nsg1496
Nsg1482
g1483
sg2002
S'round'
p2964
sg13
I01
sg14
Nsg1487
Nsg16
g17
(g18
(I0
tp2965
g20
tp2966
Rp2967
(I1
(I2
tp2968
g27
I00
S'\x00\x00\x00\x00\x00\x00\x00\x00\x00\x00\x00\x00\x00\x00\x00\x00'
p2969
tp2970
bsg32
g17
(g18
(I0
tp2971
g20
tp2972
Rp2973
(I1
(I2
tp2974
g27
I00
S'\x00\x00\x00\x00\x00\x00\x00\x00\x00\x00\x00\x00\x00\x00\xf0?'
p2975
tp2976
bsg39
Nsg1488
Nsg40
Nsg2016
g2664
sg1492
I00
sg2018
Nsg41
I00
sg42
(dp2977
sg2020
Nsg44
I00
sg2021
I00
sg45
Nsg2022
Nsg2023
F1.0
sg2024
g2025
sg2026
Nsg1667
g1959
sg2027
g1
(g2028
g3
Ntp2978
Rp2979
(dp2980
g2027
g2032
sg2033
Nsg2034
Nsg95
g1
(g757
g3
Ntp2981
Rp2982
(dp2983
g58
I1
sg119
Nsg93
g94
sg76
(dp2984
sbsg2039
I00
sg2040
g2041
sg2042
Nsg1611
g2043
sg1598
g2044
sg2045
g2048
sbsg1494
Nsg2063
g2064
sg1594
I01
sg2065
g2066
sg1518
Nsg2067
F0.0
sg1520
I01
sg2068
g17
(g18
(I0
tp2985
g20
tp2986
Rp2987
(I1
(I2
I2
tp2988
g27
I00
S'\x00\x00\x00\x00\x00\x00\x00\x00\x00\x00\x00\x00\x00\x00\x00\x00\x00\x00\x00\x00\x00\x00\xf0?\x00\x00\x00\x00\x00\x00\x00\x00'
p2989
tp2990
bsg1600
g2075
sg1522
g1
(g1523
g1524
((lp2991
(lp2992
tp2993
tp2994
Rp2995
sg1491
I0
sg2081
g2082
sg15
I0
sg2083
Nsg2084
I5
sg1535
I01
sg1536
F1.0
sg2085
S'round'
p2996
sg2087
I00
sg95
g257
sg2088
Nsg2089
Nsg2090
I00
sg1560
Nsg1613
Nsg2091
g2685
sg1497
g1018
sg1590
F0.8
sg1495
Nsg2045
g1
(g2046
g3
Ntp2997
Rp2998
(dp2999
g2050
I00
sg2051
Nsg2052
g17
(g18
(I0
tp3000
g20
tp3001
Rp3002
(I1
(I2
I2
tp3003
g27
I01
S'\x00\x00\x00\x00\x00\x00\x00\x00\x00\x00\x00\x00\x00\x00\xf0?\x00\x00\x00\x00\x00\x00\x00\x00\x00\x00\x00\x00\x00\x00\x00\x00'
p3004
tp3005
bsg2059
I00
sg2060
F0.1111111111111111
sg2061
I180
sg2062
I00
sbsbsg1536
Nsg1494
Nsg2102
g1
(g2
g3
Ntp3006
Rp3007
(dp3008
g7
g94
sg10
S'butt'
p3009
sg12
Nsg13
I01
sg14
Nsg15
I0
sg16
Nsg32
Nsg39
Nsg40
Nsg41
I00
sg42
(dp3010
sg44
I00
sg45
Nsg2023
F0.6
sg2026
Nsg2063
g2064
sg2065
g2066
sg1518
Nsg1520
I01
sg2016
g2700
sg1491
I0
sg1535
I01
sg2090
I01
sg2087
I01
sg95
g257
sg2089
Nsg2109
I2
sg1667
g1668
sg2084
I5
sg1468
g1471
sg2020
Nsg1479
Nsg1496
Nsg1482
g1483
sg2002
S'round'
p3011
sg1487
Nsg1488
Nsg1492
I00
sg2018
Nsg1495
Nsg2022
Nsg2027
g1
(g2028
g3
Ntp3012
Rp3013
(dp3014
g2027
I1
sg2033
Nsg2034
F1.0
sg95
g1
(g174
g3
Ntp3015
Rp3016
(dp3017
g58
I2
sg119
Nsg118
g17
(g18
(I0
tp3018
g20
tp3019
Rp3020
(I1
(I3
I3
tp3021
g27
I00
S'\x00\x00\x00\x00\x00\x00\xf0?\x00\x00\x00\x00\x00\x00\x00\x00\x00\x00\x00\x00\x00\x00\x00\x00\x00\x00\x00\x00\x00\x00\x00\x00\x00\x00\x00\x00\x00\x00\xf0?\x00\x00\x00\x00\x00\x00\x00\x00\x00\x00\x00\x00\x00\x00\x00\x00\x00\x00\x00\x00\x00\x00\x00\x00\x00\x00\x00\x00\x00\x00\xf0?'
p3022
tp3023
bsg93
g94
sg76
(dp3024
sbsg2039
I00
sg2040
g2041
sg2042
Nsg1611
g2043
sg1598
g2044
sg2045
g2716
sbsg2024
g2025
sg1497
Nsg1494
Nsg1594
I01
sg2068
Nsg1600
g2724
sg1522
g1
(g1523
g1524
((lp3025
(lp3026
tp3027
tp3028
Rp3029
sg2021
I00
sg2081
g2082
sg1999
S'projecting'
p3030
sg2083
Nsg1536
Nsg2085
S'round'
p3031
sg2067
F2.0
sg1467
I01
sg2088
Nsg1560
Nsg1613
Nsg2091
(I0
tp3032
sg1590
F1.5
sg2045
Nsbsg95
Nsg2142
g2733
sg2144
g2734
sg2146
g2075
sg2147
(g2148
I0
tp3033
sg1560
Nsg1667
g1668
sg2150
g1
(g2
g3
Ntp3034
Rp3035
(dp3036
g7
g94
sg10
S'butt'
p3037
sg12
Nsg13
I01
sg14
Nsg15
I0
sg16
Nsg32
Nsg39
Nsg40
Nsg41
I00
sg42
(dp3038
sg44
I00
sg45
Nsg2023
F0.6
sg2026
Nsg2063
g2064
sg2065
g2066
sg1518
Nsg1520
I01
sg2016
g2741
sg1491
I0
sg1535
I01
sg2090
I01
sg2087
I01
sg95
g257
sg2089
Nsg2109
I2
sg1667
g1668
sg2084
I5
sg1468
g1471
sg2020
Nsg1479
Nsg1496
Nsg1482
g1483
sg2002
S'round'
p3039
sg1487
Nsg1488
Nsg1492
I00
sg2018
Nsg1495
Nsg2022
Nsg2027
g1
(g2028
g3
Ntp3040
Rp3041
(dp3042
g2027
I0
sg2033
Nsg2034
F1.0
sg95
g1
(g174
g3
Ntp3043
Rp3044
(dp3045
g58
I2
sg119
Nsg118
g17
(g18
(I0
tp3046
g20
tp3047
Rp3048
(I1
(I3
I3
tp3049
g27
I00
S'\x00\x00\x00\x00\x00\x00\xf0\xbf\x00\x00\x00\x00\x00\x00\x00\x00\x00\x00\x00\x00\x00\x00\x00\x00\x00\x00\x00\x00\x00\x00\x00\x00\x00\x00\x00\x00\x00\x00\xf0?\x00\x00\x00\x00\x00\x00\x00\x00\x00\x00\x00\x00\x00\x00\x00\x00\x00\x00\x00\x00\x00\x00\x00\x00\x00\x00\x00\x00\x00\x00\xf0?'
p3050
tp3051
bsg93
g94
sg76
(dp3052
sbsg2039
I00
sg2040
g2041
sg2042
Nsg1611
g2043
sg1598
g2044
sg2045
g2716
sbsg2024
g2025
sg1497
Nsg1494
Nsg1594
I01
sg2068
Nsg1600
g2756
sg1522
g1
(g1523
g1524
((lp3053
(lp3054
tp3055
tp3056
Rp3057
sg2021
I00
sg2081
g2082
sg1999
S'projecting'
p3058
sg2083
Nsg1536
Nsg2085
S'round'
p3059
sg2067
F2.0
sg1467
I01
sg2088
Nsg1560
Nsg1613
Nsg2091
(I0
tp3060
sg1590
F1.5
sg2045
Nsbsg1495
Nsbasg1495
Nsg2483
(dp3061
g1921
I01
sg1922
I01
sg1923
I00
sg1925
I00
ssg2485
I01
sbsS'_axisbelow'
p3062
S'line'
p3063
sg1467
I01
sg1551
(lp3064
g5
asS'_ycid'
p3065
I1
sS'spines'
p3066
ccollections
OrderedDict
p3067
((lp3068
(lp3069
Vleft
p3070
ag1
(cmatplotlib.spines
Spine
p3071
g3
Ntp3072
Rp3073
(dp3074
g7
g94
sg1867
I00
sg1559
I01
sg1468
g1471
sS'_bounds'
p3075
Nsg1467
I01
sg1479
Nsg1496
Nsg1482
g1483
sg1560
Nsg13
I01
sg1845
g2528
sg1562
g1
(g757
g3
Ntp3076
Rp3077
(dp3078
g58
I1
sg119
Nsg93
g94
sg76
(dp3079
sbsg1567
(g1568
(g27
S'\x00\x00\x00\x00\x00\x00\x00\x00'
p3080
tp3081
Rp3082
g1568
(g27
S'\x00\x00\x00\x00\x00\x00\x00\x00'
p3083
tp3084
Rp3085
g1568
(g27
S'\x00\x00\x00\x00\x00\x00\x00\x00'
p3086
tp3087
Rp3088
I1
tp3089
sg1487
Nsg39
Nsg1580
g1668
sg40
Nsg1492
I00
sg41
I00
sg42
(dp3090
sg1609
(NNtp3091
sg1781
(Voutward
p3092
F0.0
tp3093
sg44
I00
sg1589
Nsg1520
I01
sg1590
F0.8
sS'_patch_type'
p3094
Vline
p3095
sg1494
Nsg1592
g3089
sg1593
Nsg1594
I01
sg1595
Nsg1596
Vnone
p3096
sg1518
Nsg1597
g1734
sg1598
g1599
sS'_patch_transform'
p3097
g1
(g757
g3
Ntp3098
Rp3099
(dp3100
g58
I1
sg119
Nsg93
g94
sg76
(dp3101
sbsg1600
g1601
sg1522
g1
(g1523
g1524
((lp3102
(lp3103
tp3104
tp3105
Rp3106
sg1491
I0
sS'_spine_transform'
p3107
(Videntity
p3108
g1
(g757
g3
Ntp3109
Rp3110
(dp3111
g58
I1
sg119
Nsg93
g94
sg76
(dp3112
sbtp3113
sg1535
I01
sg1536
NsS'spine_type'
p3114
g3070
sg95
g257
sg1497
Nsg2109
F2.5
sg1611
Vprojecting
p3115
sg1613
Nsg1488
Nsg45
g51
sg1495
Nsg2045
g1
(g2046
g3
Ntp3116
Rp3117
(dp3118
g2050
I00
sg2051
Nsg2052
g17
(g18
(I0
tp3119
g20
tp3120
Rp3121
(I1
(I2
I2
tp3122
g27
I00
S'\x00\x00\x00\x00\x00\x00\x00\x00\x00\x00\x00\x00\x00\x00*@\x00\x00\x00\x00\x00\x00\x00\x00\x00\x00\x00\x00\x00\x00*@'
p3123
tp3124
bsg2059
I00
sg2060
F0.1111111111111111
sg2061
I1
sg2062
I00
sbsbaa(lp3125
Vright
p3126
ag1
(g3071
g3
Ntp3127
Rp3128
(dp3129
g7
g94
sg1867
I00
sg1559
I01
sg1468
g1471
sg3075
Nsg1467
I01
sg1479
Nsg1496
Nsg1482
g1483
sg1560
Nsg13
I01
sg1845
g2528
sg1562
g1
(g757
g3
Ntp3130
Rp3131
(dp3132
g58
I1
sg119
Nsg93
g94
sg76
(dp3133
sbsg1567
g3089
sg1487
Nsg39
Nsg1580
g1668
sg40
Nsg1492
I00
sg41
I00
sg42
(dp3134
sg1609
(NNtp3135
sg1781
g3093
sg44
I00
sg1589
Nsg1520
I01
sg1590
F0.8
sg3094
g3095
sg1494
Nsg1592
g3089
sg1593
Nsg1594
I01
sg1595
Nsg1596
g3096
sg1518
Nsg1597
g1734
sg1598
g1599
sg3097
g1
(g757
g3
Ntp3136
Rp3137
(dp3138
g58
I1
sg119
Nsg93
g94
sg76
(dp3139
sbsg1600
g1601
sg1522
g1
(g1523
g1524
((lp3140
(lp3141
tp3142
tp3143
Rp3144
sg1491
I0
sg3107
(g3108
g1
(g757
g3
Ntp3145
Rp3146
(dp3147
g58
I1
sg119
Nsg93
g94
sg76
(dp3148
sbtp3149
sg1535
I01
sg1536
Nsg3114
g3126
sg95
g257
sg1497
Nsg2109
F2.5
sg1611
g3115
sg1613
Nsg1488
Nsg45
g51
sg1495
Nsg2045
g1
(g2046
g3
Ntp3150
Rp3151
(dp3152
g2050
I00
sg2051
Nsg2052
g17
(g18
(I0
tp3153
g20
tp3154
Rp3155
(I1
(I2
I2
tp3156
g27
I00
S'\x00\x00\x00\x00\x00\x00\xf0?\x00\x00\x00\x00\x00\x00*@\x00\x00\x00\x00\x00\x00\xf0?\x00\x00\x00\x00\x00\x00*@'
p3157
tp3158
bsg2059
I00
sg2060
F0.1111111111111111
sg2061
I1
sg2062
I00
sbsbaa(lp3159
Vbottom
p3160
ag1
(g3071
g3
Ntp3161
Rp3162
(dp3163
g7
g94
sg1867
I00
sg1559
I01
sg1468
g1471
sg3075
Nsg1467
I01
sg1479
Nsg1496
Nsg1482
g1483
sg1560
Nsg13
I01
sg1845
g1813
sg1562
g1
(g757
g3
Ntp3164
Rp3165
(dp3166
g58
I1
sg119
Nsg93
g94
sg76
(dp3167
sbsg1567
g3089
sg1487
Nsg39
Nsg1580
g1668
sg40
Nsg1492
I00
sg41
I00
sg42
(dp3168
sg1609
(NNtp3169
sg1781
g3093
sg44
I00
sg1589
Nsg1520
I01
sg1590
F0.8
sg3094
g3095
sg1494
Nsg1592
g3089
sg1593
Nsg1594
I01
sg1595
Nsg1596
g3096
sg1518
Nsg1597
g1734
sg1598
g1599
sg3097
g1
(g757
g3
Ntp3170
Rp3171
(dp3172
g58
I1
sg119
Nsg93
g94
sg76
(dp3173
sbsg1600
g1601
sg1522
g1
(g1523
g1524
((lp3174
(lp3175
tp3176
tp3177
Rp3178
sg1491
I0
sg3107
(g3108
g1
(g757
g3
Ntp3179
Rp3180
(dp3181
g58
I1
sg119
Nsg93
g94
sg76
(dp3182
sbtp3183
sg1535
I01
sg1536
Nsg3114
g3160
sg95
g198
sg1497
Nsg2109
F2.5
sg1611
g3115
sg1613
Nsg1488
Nsg45
g51
sg1495
Nsg2045
g1
(g2046
g3
Ntp3184
Rp3185
(dp3186
g2050
I00
sg2051
Nsg2052
g17
(g18
(I0
tp3187
g20
tp3188
Rp3189
(I1
(I2
I2
tp3190
g27
I00
S'\x00\x00\x00\x00\x00\x00*@\x00\x00\x00\x00\x00\x00\x00\x00\x00\x00\x00\x00\x00\x00*@\x00\x00\x00\x00\x00\x00\x00\x00'
p3191
tp3192
bsg2059
I00
sg2060
F0.1111111111111111
sg2061
I1
sg2062
I00
sbsbaa(lp3193
Vtop
p3194
ag1
(g3071
g3
Ntp3195
Rp3196
(dp3197
g7
g94
sg1867
I00
sg1559
I01
sg1468
g1471
sg3075
Nsg1467
I01
sg1479
Nsg1496
Nsg1482
g1483
sg1560
Nsg13
I01
sg1845
g1813
sg1562
g1
(g757
g3
Ntp3198
Rp3199
(dp3200
g58
I1
sg119
Nsg93
g94
sg76
(dp3201
sbsg1567
g3089
sg1487
Nsg39
Nsg1580
g1668
sg40
Nsg1492
I00
sg41
I00
sg42
(dp3202
sg1609
(NNtp3203
sg1781
g3093
sg44
I00
sg1589
Nsg1520
I01
sg1590
F0.8
sg3094
g3095
sg1494
Nsg1592
g3089
sg1593
Nsg1594
I01
sg1595
Nsg1596
g3096
sg1518
Nsg1597
g1734
sg1598
g1599
sg3097
g1
(g757
g3
Ntp3204
Rp3205
(dp3206
g58
I1
sg119
Nsg93
g94
sg76
(dp3207
sbsg1600
g1601
sg1522
g1
(g1523
g1524
((lp3208
(lp3209
tp3210
tp3211
Rp3212
sg1491
I0
sg3107
(g3108
g1
(g757
g3
Ntp3213
Rp3214
(dp3215
g58
I1
sg119
Nsg93
g94
sg76
(dp3216
sbtp3217
sg1535
I01
sg1536
Nsg3114
g3194
sg95
g198
sg1497
Nsg2109
F2.5
sg1611
g3115
sg1613
Nsg1488
Nsg45
g51
sg1495
Nsg2045
g1
(g2046
g3
Ntp3218
Rp3219
(dp3220
g2050
I00
sg2051
Nsg2052
g17
(g18
(I0
tp3221
g20
tp3222
Rp3223
(I1
(I2
I2
tp3224
g27
I00
S'\x00\x00\x00\x00\x00\x00*@\x00\x00\x00\x00\x00\x00\xf0?\x00\x00\x00\x00\x00\x00*@\x00\x00\x00\x00\x00\x00\xf0?'
p3225
tp3226
bsg2059
I00
sg2060
F0.1111111111111111
sg2061
I1
sg2062
I00
sbsbaatp3227
Rp3228
sS'_anchor'
p3229
VC
p3230
sg1560
Nsg1613
Nsbsg2023
F1.0
sg2026
Nsg2063
g2064
sg2065
g2066
sg1518
Nsg1520
I01
sg2016
g17
(g18
(I0
tp3231
g20
tp3232
Rp3233
(I1
(I5
tp3234
g1768
I00
S'\x01\x00\x00\x00\x00\x00\x00\x00\x02\x00\x00\x00\x00\x00\x00\x00\x03\x00\x00\x00\x00\x00\x00\x00\x04\x00\x00\x00\x00\x00\x00\x00\x05\x00\x00\x00\x00\x00\x00\x00'
p3235
tp3236
bsg1491
I0
sg1535
I01
sg2090
I00
sg2087
I00
sg95
g105
sg2089
Nsg1667
S'#1f77b4'
p3237
sg2084
I5
sg1468
g1471
sg2020
Nsg1479
Nsg2088
Nsg1496
Nsg1482
g1483
sg2002
S'round'
p3238
sg1487
Nsg1488
Nsg1492
I00
sg2018
Nsg1495
Nsg2022
Nsg2027
g1
(g2028
g3
Ntp3239
Rp3240
(dp3241
g2027
g2032
sg2033
Nsg2034
Nsg95
g1
(g757
g3
Ntp3242
Rp3243
(dp3244
g58
I1
sg119
Nsg93
g94
sg76
(dp3245
sbsg2039
I00
sg2040
g2041
sg2042
Nsg1611
g2043
sg1598
g2044
sg2045
g2048
sbsg2024
g2025
sg1497
g1314
sg1494
Nsg1594
I01
sg2068
g17
(g18
(I0
tp3246
g20
tp3247
Rp3248
(I1
(I5
I2
tp3249
g27
I00
S'\x00\x00\x00\x00\x00\x00\xf0?\x00\x00\x00\x00\x00\x00\xf0?\x00\x00\x00\x00\x00\x00\x00@\x00\x00\x00\x00\x00\x00\x10@\x00\x00\x00\x00\x00\x00\x08@\x00\x00\x00\x00\x00\x00"@\x00\x00\x00\x00\x00\x00\x10@\x00\x00\x00\x00\x00\x000@\x00\x00\x00\x00\x00\x00\x14@\x00\x00\x00\x00\x00\x009@'
p3250
tp3251
bsg1600
g2075
sg1522
g1
(g1523
g1524
((lp3252
(lp3253
tp3254
tp3255
Rp3256
sg2021
I00
sg2081
g2082
sg1999
S'projecting'
p3257
sg2083
Nsg1536
Nsg2085
S'round'
p3258
sg2067
F6.0
sg1467
I01
sg3065
I2
sg1560
Nsg1613
Nsg2091
g17
(g18
(I0
tp3259
g20
tp3260
Rp3261
(I1
(I5
tp3262
g1768
I00
S'\x01\x00\x00\x00\x00\x00\x00\x00\x04\x00\x00\x00\x00\x00\x00\x00\t\x00\x00\x00\x00\x00\x00\x00\x10\x00\x00\x00\x00\x00\x00\x00\x19\x00\x00\x00\x00\x00\x00\x00'
p3263
tp3264
bsg1590
F1.5
sg2045
g1
(g2046
g3
Ntp3265
Rp3266
(dp3267
g2050
I00
sg2051
Nsg2052
g17
(g18
(I0
tp3268
g20
tp3269
Rp3270
(I1
(I5
I2
tp3271
g27
I01
S'\x00\x00\x00\x00\x00\x00\xf0?\x00\x00\x00\x00\x00\x00\x00@\x00\x00\x00\x00\x00\x00\x08@\x00\x00\x00\x00\x00\x00\x10@\x00\x00\x00\x00\x00\x00\x14@\x00\x00\x00\x00\x00\x00\xf0?\x00\x00\x00\x00\x00\x00\x10@\x00\x00\x00\x00\x00\x00"@\x00\x00\x00\x00\x00\x000@\x00\x00\x00\x00\x00\x009@'
p3272
tp3273
bsg2059
I00
sg2060
F0.1111111111111111
sg2061
I1
sg2062
I00
sbsba.